
out.elf:     file format elf32-tradlittlemips


Disassembly of section .reset:

bd007000 <_reset>:
bd007000:	0f401c02 	jal	bd007008 <_startup>
bd007004:	00000000 	nop

bd007008 <_startup>:
bd007008:	401a6000 	mfc0	k0,c0_status
bd00700c:	7f5a04c0 	ext	k0,k0,0x13,0x1
bd007010:	13400005 	beqz	k0,bd007028 <_no_nmi>
bd007014:	00000000 	nop
bd007018:	3c1a9d01 	lui	k0,0x9d01
bd00701c:	275a8fd8 	addiu	k0,k0,-28712
bd007020:	03400008 	jr	k0
bd007024:	00000000 	nop

bd007028 <_no_nmi>:
bd007028:	3c1da001 	lui	sp,0xa001
bd00702c:	27bdfff8 	addiu	sp,sp,-8
bd007030:	3c1ca000 	lui	gp,0xa000
bd007034:	279c7ff0 	addiu	gp,gp,32752
bd007038:	3c089d01 	lui	t0,0x9d01
bd00703c:	25088ff0 	addiu	t0,t0,-28688
bd007040:	0100f809 	jalr	t0
bd007044:	00000000 	nop

bd007048 <_start_bss_init>:
bd007048:	3c08a000 	lui	t0,0xa000
bd00704c:	25080000 	addiu	t0,t0,0
bd007050:	3c09a000 	lui	t1,0xa000
bd007054:	25290000 	addiu	t1,t1,0
bd007058:	10000003 	b	bd007068 <_bss_check>
bd00705c:	00000000 	nop

bd007060 <_bss_init>:
bd007060:	ad000000 	sw	zero,0(t0)
bd007064:	25080004 	addiu	t0,t0,4

bd007068 <_bss_check>:
bd007068:	0109082b 	sltu	at,t0,t1
bd00706c:	1420fffc 	bnez	at,bd007060 <_bss_init>
bd007070:	00000000 	nop
bd007074:	3c089d01 	lui	t0,0x9d01
bd007078:	25088fa0 	addiu	t0,t0,-28768
bd00707c:	0100f809 	jalr	t0
bd007080:	00000000 	nop
bd007084:	3c090000 	lui	t1,0x0
bd007088:	25290000 	addiu	t1,t1,0
bd00708c:	11200010 	beqz	t1,bd0070d0 <_ramfunc_done>
bd007090:	00000000 	nop
bd007094:	3c090001 	lui	t1,0x1
bd007098:	25290000 	addiu	t1,t1,0
bd00709c:	3c0abf88 	lui	t2,0xbf88
bd0070a0:	254a2010 	addiu	t2,t2,8208
bd0070a4:	ad490000 	sw	t1,0(t2)
bd0070a8:	3c090001 	lui	t1,0x1
bd0070ac:	25290000 	addiu	t1,t1,0
bd0070b0:	3c0abf88 	lui	t2,0xbf88
bd0070b4:	254a2020 	addiu	t2,t2,8224
bd0070b8:	ad490000 	sw	t1,0(t2)
bd0070bc:	3c090001 	lui	t1,0x1
bd0070c0:	25290000 	addiu	t1,t1,0
bd0070c4:	3c0abf88 	lui	t2,0xbf88
bd0070c8:	254a2030 	addiu	t2,t2,8240
bd0070cc:	ad490000 	sw	t1,0(t2)

bd0070d0 <_ramfunc_done>:
bd0070d0:	40804800 	mtc0	zero,c0_count
bd0070d4:	240affff 	li	t2,-1
bd0070d8:	408a5800 	mtc0	t2,c0_compare
bd0070dc:	3c080040 	lui	t0,0x40
bd0070e0:	400a6000 	mfc0	t2,c0_status
bd0070e4:	010a5025 	or	t2,t0,t2
bd0070e8:	408a6000 	mtc0	t2,c0_status
bd0070ec:	3c099d00 	lui	t1,0x9d00
bd0070f0:	25296000 	addiu	t1,t1,24576
bd0070f4:	000000c0 	ehb
bd0070f8:	40897801 	mtc0	t1,c0_ebase
bd0070fc:	3c090000 	lui	t1,0x0
bd007100:	25290001 	addiu	t1,t1,1
bd007104:	240a0000 	li	t2,0
bd007108:	7d2a4944 	ins	t2,t1,0x5,0x5
bd00710c:	408a6001 	mtc0	t2,c0_intctl
bd007110:	3c090080 	lui	t1,0x80
bd007114:	40896800 	mtc0	t1,c0_cause
bd007118:	40088000 	mfc0	t0,c0_config
bd00711c:	7d090580 	ext	t1,t0,0x16,0x1
bd007120:	00094c40 	sll	t1,t1,0x11
bd007124:	40086000 	mfc0	t0,c0_status
bd007128:	3c010058 	lui	at,0x58
bd00712c:	01014024 	and	t0,t0,at
bd007130:	01284025 	or	t0,t1,t0
bd007134:	40886000 	mtc0	t0,c0_status
bd007138:	000000c0 	ehb
bd00713c:	3c089d01 	lui	t0,0x9d01
bd007140:	25088ff8 	addiu	t0,t0,-28680
bd007144:	0100f809 	jalr	t0
bd007148:	00000000 	nop
bd00714c:	40086000 	mfc0	t0,c0_status
bd007150:	3c01ffbf 	lui	at,0xffbf
bd007154:	3421ffff 	ori	at,at,0xffff
bd007158:	01014024 	and	t0,t0,at
bd00715c:	40886000 	mtc0	t0,c0_status
bd007160:	30840000 	andi	a0,a0,0x0
bd007164:	30a50000 	andi	a1,a1,0x0
bd007168:	3c089d01 	lui	t0,0x9d01
bd00716c:	25088e30 	addiu	t0,t0,-29136
bd007170:	01000008 	jr	t0
bd007174:	00000000 	nop

Disassembly of section .bev_excpt:

bfc07380 <_bev_exception>:
bfc07380:	3c1a9d01 	lui	k0,0x9d01
bfc07384:	275a8e84 	addiu	k0,k0,-29052
bfc07388:	03400008 	jr	k0
bfc0738c:	00000000 	nop

Disassembly of section .app_excpt:

9d006180 <_gen_exception>:
9d006180:	3c1a9d01 	lui	k0,0x9d01
9d006184:	275a88ec 	addiu	k0,k0,-30484
9d006188:	03400008 	jr	k0
9d00618c:	00000000 	nop

Disassembly of section .vector_0:

9d006200 <__vector_dispatch_0>:
9d006200:	0b4023c5 	j	9d008f14 <_DefaultInterrupt>
9d006204:	00000000 	nop

Disassembly of section .vector_1:

9d006220 <__vector_dispatch_1>:
9d006220:	0b4023c5 	j	9d008f14 <_DefaultInterrupt>
9d006224:	00000000 	nop

Disassembly of section .vector_2:

9d006240 <__vector_dispatch_2>:
9d006240:	0b4023c5 	j	9d008f14 <_DefaultInterrupt>
9d006244:	00000000 	nop

Disassembly of section .vector_3:

9d006260 <__vector_dispatch_3>:
9d006260:	0b4023c5 	j	9d008f14 <_DefaultInterrupt>
9d006264:	00000000 	nop

Disassembly of section .vector_4:

9d006280 <__vector_dispatch_4>:
9d006280:	0b4023c5 	j	9d008f14 <_DefaultInterrupt>
9d006284:	00000000 	nop

Disassembly of section .vector_5:

9d0062a0 <__vector_dispatch_5>:
9d0062a0:	0b4023c5 	j	9d008f14 <_DefaultInterrupt>
9d0062a4:	00000000 	nop

Disassembly of section .vector_6:

9d0062c0 <__vector_dispatch_6>:
9d0062c0:	0b4023c5 	j	9d008f14 <_DefaultInterrupt>
9d0062c4:	00000000 	nop

Disassembly of section .vector_7:

9d0062e0 <__vector_dispatch_7>:
9d0062e0:	0b4023c5 	j	9d008f14 <_DefaultInterrupt>
9d0062e4:	00000000 	nop

Disassembly of section .vector_8:

9d006300 <__vector_dispatch_8>:
9d006300:	0b4023c5 	j	9d008f14 <_DefaultInterrupt>
9d006304:	00000000 	nop

Disassembly of section .vector_9:

9d006320 <__vector_dispatch_9>:
9d006320:	0b4023c5 	j	9d008f14 <_DefaultInterrupt>
9d006324:	00000000 	nop

Disassembly of section .vector_10:

9d006340 <__vector_dispatch_10>:
9d006340:	0b4023c5 	j	9d008f14 <_DefaultInterrupt>
9d006344:	00000000 	nop

Disassembly of section .vector_11:

9d006360 <__vector_dispatch_11>:
9d006360:	0b4023c5 	j	9d008f14 <_DefaultInterrupt>
9d006364:	00000000 	nop

Disassembly of section .vector_12:

9d006380 <__vector_dispatch_12>:
9d006380:	0b4023c5 	j	9d008f14 <_DefaultInterrupt>
9d006384:	00000000 	nop

Disassembly of section .vector_13:

9d0063a0 <__vector_dispatch_13>:
9d0063a0:	0b4023c5 	j	9d008f14 <_DefaultInterrupt>
9d0063a4:	00000000 	nop

Disassembly of section .vector_14:

9d0063c0 <__vector_dispatch_14>:
9d0063c0:	0b4023c5 	j	9d008f14 <_DefaultInterrupt>
9d0063c4:	00000000 	nop

Disassembly of section .vector_15:

9d0063e0 <__vector_dispatch_15>:
9d0063e0:	0b4023c5 	j	9d008f14 <_DefaultInterrupt>
9d0063e4:	00000000 	nop

Disassembly of section .vector_16:

9d006400 <__vector_dispatch_16>:
9d006400:	0b4023c5 	j	9d008f14 <_DefaultInterrupt>
9d006404:	00000000 	nop

Disassembly of section .vector_17:

9d006420 <__vector_dispatch_17>:
9d006420:	0b4023c5 	j	9d008f14 <_DefaultInterrupt>
9d006424:	00000000 	nop

Disassembly of section .vector_18:

9d006440 <__vector_dispatch_18>:
9d006440:	0b4023c5 	j	9d008f14 <_DefaultInterrupt>
9d006444:	00000000 	nop

Disassembly of section .vector_19:

9d006460 <__vector_dispatch_19>:
9d006460:	0b4023c5 	j	9d008f14 <_DefaultInterrupt>
9d006464:	00000000 	nop

Disassembly of section .vector_20:

9d006480 <__vector_dispatch_20>:
9d006480:	0b4023c5 	j	9d008f14 <_DefaultInterrupt>
9d006484:	00000000 	nop

Disassembly of section .vector_21:

9d0064a0 <__vector_dispatch_21>:
9d0064a0:	0b4023c5 	j	9d008f14 <_DefaultInterrupt>
9d0064a4:	00000000 	nop

Disassembly of section .vector_22:

9d0064c0 <__vector_dispatch_22>:
9d0064c0:	0b4023c5 	j	9d008f14 <_DefaultInterrupt>
9d0064c4:	00000000 	nop

Disassembly of section .vector_23:

9d0064e0 <__vector_dispatch_23>:
9d0064e0:	0b4023c5 	j	9d008f14 <_DefaultInterrupt>
9d0064e4:	00000000 	nop

Disassembly of section .vector_24:

9d006500 <__vector_dispatch_24>:
9d006500:	0b4023c5 	j	9d008f14 <_DefaultInterrupt>
9d006504:	00000000 	nop

Disassembly of section .vector_25:

9d006520 <__vector_dispatch_25>:
9d006520:	0b4023c5 	j	9d008f14 <_DefaultInterrupt>
9d006524:	00000000 	nop

Disassembly of section .vector_26:

9d006540 <__vector_dispatch_26>:
9d006540:	0b4023c5 	j	9d008f14 <_DefaultInterrupt>
9d006544:	00000000 	nop

Disassembly of section .vector_27:

9d006560 <__vector_dispatch_27>:
9d006560:	0b4023c5 	j	9d008f14 <_DefaultInterrupt>
9d006564:	00000000 	nop

Disassembly of section .vector_28:

9d006580 <__vector_dispatch_28>:
9d006580:	0b4023c5 	j	9d008f14 <_DefaultInterrupt>
9d006584:	00000000 	nop

Disassembly of section .vector_29:

9d0065a0 <__vector_dispatch_29>:
9d0065a0:	0b4023c5 	j	9d008f14 <_DefaultInterrupt>
9d0065a4:	00000000 	nop

Disassembly of section .vector_30:

9d0065c0 <__vector_dispatch_30>:
9d0065c0:	0b4023c5 	j	9d008f14 <_DefaultInterrupt>
9d0065c4:	00000000 	nop

Disassembly of section .vector_31:

9d0065e0 <__vector_dispatch_31>:
9d0065e0:	0b4023c5 	j	9d008f14 <_DefaultInterrupt>
9d0065e4:	00000000 	nop

Disassembly of section .vector_32:

9d006600 <__vector_dispatch_32>:
9d006600:	0b4023c5 	j	9d008f14 <_DefaultInterrupt>
9d006604:	00000000 	nop

Disassembly of section .vector_33:

9d006620 <__vector_dispatch_33>:
9d006620:	0b4023c5 	j	9d008f14 <_DefaultInterrupt>
9d006624:	00000000 	nop

Disassembly of section .vector_34:

9d006640 <__vector_dispatch_34>:
9d006640:	0b4023c5 	j	9d008f14 <_DefaultInterrupt>
9d006644:	00000000 	nop

Disassembly of section .vector_35:

9d006660 <__vector_dispatch_35>:
9d006660:	0b4023c5 	j	9d008f14 <_DefaultInterrupt>
9d006664:	00000000 	nop

Disassembly of section .vector_36:

9d006680 <__vector_dispatch_36>:
9d006680:	0b4023c5 	j	9d008f14 <_DefaultInterrupt>
9d006684:	00000000 	nop

Disassembly of section .vector_37:

9d0066a0 <__vector_dispatch_37>:
9d0066a0:	0b4023c5 	j	9d008f14 <_DefaultInterrupt>
9d0066a4:	00000000 	nop

Disassembly of section .vector_38:

9d0066c0 <__vector_dispatch_38>:
9d0066c0:	0b4023c5 	j	9d008f14 <_DefaultInterrupt>
9d0066c4:	00000000 	nop

Disassembly of section .vector_39:

9d0066e0 <__vector_dispatch_39>:
9d0066e0:	0b4023c5 	j	9d008f14 <_DefaultInterrupt>
9d0066e4:	00000000 	nop

Disassembly of section .vector_40:

9d006700 <__vector_dispatch_40>:
9d006700:	0b4023c5 	j	9d008f14 <_DefaultInterrupt>
9d006704:	00000000 	nop

Disassembly of section .vector_41:

9d006720 <__vector_dispatch_41>:
9d006720:	0b4023c5 	j	9d008f14 <_DefaultInterrupt>
9d006724:	00000000 	nop

Disassembly of section .vector_42:

9d006740 <__vector_dispatch_42>:
9d006740:	0b4023c5 	j	9d008f14 <_DefaultInterrupt>
9d006744:	00000000 	nop

Disassembly of section .vector_43:

9d006760 <__vector_dispatch_43>:
9d006760:	0b4023c5 	j	9d008f14 <_DefaultInterrupt>
9d006764:	00000000 	nop

Disassembly of section .rodata:

9d007490 <.rodata>:
9d007490:	c083126f 	ll	v1,4719(a0)
9d007494:	401921ca 	0x401921ca
9d007498:	66666666 	0x66666666
9d00749c:	3ffa6666 	0x3ffa6666
9d0074a0:	47ae147b 	c1	0x1ae147b
9d0074a4:	3f847ae1 	0x3f847ae1
9d0074a8:	447fc000 	mfhc1	ra,$f24

Disassembly of section ._debug_exception:

bfc00480 <__DbgExecReturn>:
bfc00480:	409bf800 	mtc0	k1,c0_desave
bfc00484:	000000c0 	ehb
bfc00488:	3c1b9d01 	lui	k1,0x9d01
bfc0048c:	277b8f5c 	addiu	k1,k1,-28836
bfc00490:	13600002 	beqz	k1,bfc0049c <__DbgExecReturn+0x1c>
bfc00494:	00000000 	nop
bfc00498:	409bc000 	mtc0	k1,c0_depc
bfc0049c:	401bf800 	mfc0	k1,c0_desave
bfc004a0:	000000c0 	ehb
bfc004a4:	4200001f 	deret
bfc004a8:	00000000 	nop

Disassembly of section .text.dp32subadd:

9d0074ac <__subdf3>:
9d0074ac:	3c018000 00e13826                       ...<&8..

9d0074b4 <__adddf3>:
9d0074b4:	00055840 000b5d42 000552c0 00047d42     @X..B]...R..B}..
9d0074c4:	014f5025 00044ac0 3c088000 01485025     %PO..J.....<%PH.
9d0074d4:	00077040 000e7542 00076ac0 00067d42     @p..Bu...j..B}..
9d0074e4:	01af6825 000662c0 01a86825 256fffff     %h...b..%h....o%
9d0074f4:	2de107fe 1020008d 00000000              ...-.. .....

9d007500 <Blab1>:
9d007500:	25cfffff 	addiu	t7,t6,-1
9d007504:	2de107fe 	sltiu	at,t7,2046
9d007508:	102000bb 	beqz	at,9d0077f8 <BspecB>
9d00750c:	00000000 	nop

9d007510 <Blab2>:
9d007510:	3c018000 	lui	at,0x8000
9d007514:	00a12824 	and	a1,a1,at
9d007518:	016e4023 	subu	t0,t3,t6
9d00751c:	1100002c 	beqz	t0,9d0075d0 <Badd3>
9d007520:	00000000 	nop
9d007524:	19000015 	blez	t0,9d00757c <i1>
9d007528:	00000000 	nop

9d00752c <L1>:
9d00752c:	2d010020 	sltiu	at,t0,32
9d007530:	14200007 	bnez	at,9d007550 <L2>
9d007534:	00000000 	nop
9d007538:	2108ffe0 	addi	t0,t0,-32
9d00753c:	000c302b 	sltu	a2,zero,t4
9d007540:	100d0023 	beq	zero,t5,9d0075d0 <Badd3>
9d007544:	01a66025 	or	t4,t5,a2
9d007548:	1000fff8 	b	9d00752c <L1>
9d00754c:	340d0000 	li	t5,0x0

9d007550 <L2>:
9d007550:	1100001f 	beqz	t0,9d0075d0 <Badd3>
9d007554:	00000000 	nop
9d007558:	00082022 	neg	a0,t0
9d00755c:	008c3004 	sllv	a2,t4,a0
9d007560:	008d2004 	sllv	a0,t5,a0
9d007564:	010c6006 	srlv	t4,t4,t0
9d007568:	010d6806 	srlv	t5,t5,t0
9d00756c:	10c00018 	beqz	a2,9d0075d0 <Badd3>
9d007570:	008c6025 	or	t4,a0,t4
9d007574:	10000016 	b	9d0075d0 <Badd3>
9d007578:	358c0002 	ori	t4,t4,0x2

9d00757c <i1>:
9d00757c:	000e5825 	or	t3,zero,t6
9d007580:	00084023 	negu	t0,t0

9d007584 <L4>:
9d007584:	2d010020 	sltiu	at,t0,32
9d007588:	14200007 	bnez	at,9d0075a8 <L5>
9d00758c:	00000000 	nop
9d007590:	2108ffe0 	addi	t0,t0,-32
9d007594:	0009302b 	sltu	a2,zero,t1
9d007598:	100a000d 	beq	zero,t2,9d0075d0 <Badd3>
9d00759c:	01464825 	or	t1,t2,a2
9d0075a0:	1000fff8 	b	9d007584 <L4>
9d0075a4:	340a0000 	li	t2,0x0

9d0075a8 <L5>:
9d0075a8:	11000009 	beqz	t0,9d0075d0 <Badd3>
9d0075ac:	00000000 	nop
9d0075b0:	00082022 	neg	a0,t0
9d0075b4:	00893004 	sllv	a2,t1,a0
9d0075b8:	008a2004 	sllv	a0,t2,a0
9d0075bc:	01094806 	srlv	t1,t1,t0
9d0075c0:	010a5006 	srlv	t2,t2,t0
9d0075c4:	10c00002 	beqz	a2,9d0075d0 <Badd3>
9d0075c8:	00894825 	or	t1,a0,t1
9d0075cc:	35290002 	ori	t1,t1,0x2

9d0075d0 <Badd3>:
9d0075d0:	00a77826 	xor	t7,a1,a3
9d0075d4:	05e0001c 	bltz	t7,9d007648 <Bsub1>
9d0075d8:	00000000 	nop
9d0075dc:	012c4821 	addu	t1,t1,t4
9d0075e0:	012c782b 	sltu	t7,t1,t4
9d0075e4:	014d5021 	addu	t2,t2,t5
9d0075e8:	014f5021 	addu	t2,t2,t7
9d0075ec:	114d0002 	beq	t2,t5,9d0075f8 <L7>
9d0075f0:	00000000 	nop
9d0075f4:	014d782b 	sltu	t7,t2,t5

9d0075f8 <L7>:
9d0075f8:	11e00037 	beqz	t7,9d0076d8 <Bres>
9d0075fc:	00000000 	nop
9d007600:	312f0001 	andi	t7,t1,0x1
9d007604:	11e00002 	beqz	t7,9d007610 <i3>
9d007608:	00000000 	nop
9d00760c:	35290002 	ori	t1,t1,0x2

9d007610 <i3>:
9d007610:	00094842 	srl	t1,t1,0x1
9d007614:	000a7fc0 	sll	t7,t2,0x1f
9d007618:	012f4825 	or	t1,t1,t7
9d00761c:	000a5042 	srl	t2,t2,0x1
9d007620:	3c018000 	lui	at,0x8000
9d007624:	01415025 	or	t2,t2,at
9d007628:	256b0001 	addiu	t3,t3,1
9d00762c:	240107ff 	li	at,2047
9d007630:	15610029 	bne	t3,at,9d0076d8 <Bres>
9d007634:	00000000 	nop
9d007638:	3c017ff0 	lui	at,0x7ff0
9d00763c:	00a12825 	or	a1,a1,at
9d007640:	10000037 	b	9d007720 <BretA>
9d007644:	24040000 	li	a0,0

9d007648 <Bsub1>:
9d007648:	012c782b 	sltu	t7,t1,t4
9d00764c:	012c4823 	subu	t1,t1,t4
9d007650:	014f102b 	sltu	v0,t2,t7
9d007654:	014f5023 	subu	t2,t2,t7
9d007658:	014d782b 	sltu	t7,t2,t5
9d00765c:	01e27825 	or	t7,t7,v0
9d007660:	11e00007 	beqz	t7,9d007680 <i5>
9d007664:	014d5023 	subu	t2,t2,t5
9d007668:	3c018000 	lui	at,0x8000
9d00766c:	00a12826 	xor	a1,a1,at
9d007670:	0009782b 	sltu	t7,zero,t1
9d007674:	00094823 	negu	t1,t1
9d007678:	000a5023 	negu	t2,t2
9d00767c:	014f5023 	subu	t2,t2,t7

9d007680 <i5>:
9d007680:	15400008 	bnez	t2,9d0076a4 <L8>
9d007684:	00000000 	nop
9d007688:	15200003 	bnez	t1,9d007698 <L9>
9d00768c:	00000000 	nop
9d007690:	1000000d 	b	9d0076c8 <L10>
9d007694:	240b0000 	li	t3,0

9d007698 <L9>:
9d007698:	01205025 	move	t2,t1
9d00769c:	24090000 	li	t1,0
9d0076a0:	256bffe0 	addiu	t3,t3,-32

9d0076a4 <L8>:
9d0076a4:	71484020 	clz	t0,t2
9d0076a8:	11000007 	beqz	t0,9d0076c8 <L10>
9d0076ac:	00000000 	nop
9d0076b0:	01685823 	subu	t3,t3,t0
9d0076b4:	00082022 	neg	a0,t0
9d0076b8:	00892006 	srlv	a0,t1,a0
9d0076bc:	01094804 	sllv	t1,t1,t0
9d0076c0:	010a5004 	sllv	t2,t2,t0
9d0076c4:	01445025 	or	t2,t2,a0

9d0076c8 <L10>:
9d0076c8:	01497825 	or	t7,t2,t1
9d0076cc:	15e00002 	bnez	t7,9d0076d8 <Bres>
9d0076d0:	00000000 	nop
9d0076d4:	24050000 	li	a1,0

9d0076d8 <Bres>:
9d0076d8:	19600068 	blez	t3,9d00787c <Bund>
9d0076dc:	00000000 	nop

9d0076e0 <Blab8>:
9d0076e0:	25290400 	addiu	t1,t1,1024
9d0076e4:	2d2f0400 	sltiu	t7,t1,1024
9d0076e8:	014f5021 	addu	t2,t2,t7
9d0076ec:	014f782b 	sltu	t7,t2,t7
9d0076f0:	016f5821 	addu	t3,t3,t7
9d0076f4:	00097ac2 	srl	t7,t1,0xb
9d0076f8:	31ef0001 	andi	t7,t7,0x1
9d0076fc:	012f4823 	subu	t1,t1,t7
9d007700:	000922c2 	srl	a0,t1,0xb
9d007704:	000a7d40 	sll	t7,t2,0x15
9d007708:	008f2025 	or	a0,a0,t7
9d00770c:	000a7840 	sll	t7,t2,0x1
9d007710:	000f7b02 	srl	t7,t7,0xc
9d007714:	00af2825 	or	a1,a1,t7
9d007718:	000b7d00 	sll	t7,t3,0x14
9d00771c:	00af2825 	or	a1,a1,t7

9d007720 <BretA>:
9d007720:	00041025 	or	v0,zero,a0
9d007724:	00051825 	or	v1,zero,a1

9d007728 <B999>:
9d007728:	03e00008 	jr	ra
9d00772c:	00000000 	nop

9d007730 <BspecA>:
9d007730:	0120782a 	slt	t7,t1,zero
9d007734:	01294821 	addu	t1,t1,t1
9d007738:	014a5021 	addu	t2,t2,t2
9d00773c:	15600023 	bnez	t3,9d0077cc <i7>
9d007740:	014f5021 	addu	t2,t2,t7
9d007744:	01497825 	or	t7,t2,t1
9d007748:	11e00014 	beqz	t7,9d00779c <i8>
9d00774c:	00000000 	nop
9d007750:	15400008 	bnez	t2,9d007774 <L11>
9d007754:	00000000 	nop
9d007758:	15200003 	bnez	t1,9d007768 <L12>
9d00775c:	00000000 	nop
9d007760:	1000ff67 	b	9d007500 <Blab1>
9d007764:	240b0000 	li	t3,0

9d007768 <L12>:
9d007768:	01205025 	move	t2,t1
9d00776c:	24090000 	li	t1,0
9d007770:	256bffe0 	addiu	t3,t3,-32

9d007774 <L11>:
9d007774:	71484020 	clz	t0,t2
9d007778:	1100ff61 	beqz	t0,9d007500 <Blab1>
9d00777c:	00000000 	nop
9d007780:	01685823 	subu	t3,t3,t0
9d007784:	00082022 	neg	a0,t0
9d007788:	00892006 	srlv	a0,t1,a0
9d00778c:	01094804 	sllv	t1,t1,t0
9d007790:	010a5004 	sllv	t2,t2,t0
9d007794:	1000ff5a 	b	9d007500 <Blab1>
9d007798:	01445025 	or	t2,t2,a0

9d00779c <i8>:
9d00779c:	240107ff 	li	at,2047
9d0077a0:	11c10015 	beq	t6,at,9d0077f8 <BspecB>
9d0077a4:	00000000 	nop
9d0077a8:	00e74021 	addu	t0,a3,a3
9d0077ac:	01067825 	or	t7,t0,a2
9d0077b0:	15e00003 	bnez	t7,9d0077c0 <BretB>
9d0077b4:	00000000 	nop
9d0077b8:	04e0ffd9 	bltz	a3,9d007720 <BretA>
9d0077bc:	00000000 	nop

9d0077c0 <BretB>:
9d0077c0:	00061025 	or	v0,zero,a2
9d0077c4:	1000ffd8 	b	9d007728 <B999>
9d0077c8:	00071825 	or	v1,zero,a3

9d0077cc <i7>:
9d0077cc:	01497825 	or	t7,t2,t1
9d0077d0:	15e00027 	bnez	t7,9d007870 <Bnan>
9d0077d4:	00000000 	nop
9d0077d8:	240107ff 	li	at,2047
9d0077dc:	15c1ffd0 	bne	t6,at,9d007720 <BretA>
9d0077e0:	00000000 	nop
9d0077e4:	00a77826 	xor	t7,a1,a3
9d0077e8:	05e00021 	bltz	t7,9d007870 <Bnan>
9d0077ec:	00000000 	nop
9d0077f0:	1000fff3 	b	9d0077c0 <BretB>
9d0077f4:	00000000 	nop

9d0077f8 <BspecB>:
9d0077f8:	0180782a 	slt	t7,t4,zero
9d0077fc:	018c6021 	addu	t4,t4,t4
9d007800:	01ad6821 	addu	t5,t5,t5
9d007804:	15c00017 	bnez	t6,9d007864 <i11>
9d007808:	01af6821 	addu	t5,t5,t7
9d00780c:	01ac7825 	or	t7,t5,t4
9d007810:	11e0ffc3 	beqz	t7,9d007720 <BretA>
9d007814:	00000000 	nop
9d007818:	15a00008 	bnez	t5,9d00783c <L14>
9d00781c:	00000000 	nop
9d007820:	15800003 	bnez	t4,9d007830 <L15>
9d007824:	00000000 	nop
9d007828:	1000ff39 	b	9d007510 <Blab2>
9d00782c:	240e0000 	li	t6,0

9d007830 <L15>:
9d007830:	01806825 	move	t5,t4
9d007834:	240c0000 	li	t4,0
9d007838:	25ceffe0 	addiu	t6,t6,-32

9d00783c <L14>:
9d00783c:	71a84020 	clz	t0,t5
9d007840:	1100ff33 	beqz	t0,9d007510 <Blab2>
9d007844:	00000000 	nop
9d007848:	01c87023 	subu	t6,t6,t0
9d00784c:	00082022 	neg	a0,t0
9d007850:	008c2006 	srlv	a0,t4,a0
9d007854:	010c6004 	sllv	t4,t4,t0
9d007858:	010d6804 	sllv	t5,t5,t0
9d00785c:	1000ff2c 	b	9d007510 <Blab2>
9d007860:	01a46825 	or	t5,t5,a0

9d007864 <i11>:
9d007864:	01ac7825 	or	t7,t5,t4
9d007868:	11e0ffd5 	beqz	t7,9d0077c0 <BretB>
9d00786c:	00000000 	nop

9d007870 <Bnan>:
9d007870:	3c05fff8 	lui	a1,0xfff8
9d007874:	1000ffaa 	b	9d007720 <BretA>
9d007878:	24040000 	li	a0,0

9d00787c <Bund>:
9d00787c:	24080001 	li	t0,1
9d007880:	010b4023 	subu	t0,t0,t3

9d007884 <L17>:
9d007884:	2d010020 	sltiu	at,t0,32
9d007888:	14200007 	bnez	at,9d0078a8 <L18>
9d00788c:	00000000 	nop
9d007890:	2108ffe0 	addi	t0,t0,-32
9d007894:	0009302b 	sltu	a2,zero,t1
9d007898:	100a000d 	beq	zero,t2,9d0078d0 <L19>
9d00789c:	01464825 	or	t1,t2,a2
9d0078a0:	1000fff8 	b	9d007884 <L17>
9d0078a4:	340a0000 	li	t2,0x0

9d0078a8 <L18>:
9d0078a8:	11000009 	beqz	t0,9d0078d0 <L19>
9d0078ac:	00000000 	nop
9d0078b0:	00082022 	neg	a0,t0
9d0078b4:	00893004 	sllv	a2,t1,a0
9d0078b8:	008a2004 	sllv	a0,t2,a0
9d0078bc:	01094806 	srlv	t1,t1,t0
9d0078c0:	010a5006 	srlv	t2,t2,t0
9d0078c4:	10c00002 	beqz	a2,9d0078d0 <L19>
9d0078c8:	00894825 	or	t1,a0,t1
9d0078cc:	35290002 	ori	t1,t1,0x2

9d0078d0 <L19>:
9d0078d0:	1000ff83 	b	9d0076e0 <Blab8>
9d0078d4:	240b0000 	li	t3,0
9d0078d8:	00000000 	nop

Disassembly of section .text.dp32mul:

9d0078dc <__muldf3>:
9d0078dc:	00055040 000a5542 00054ac0 00047d42     @P..BU...J..B}..
9d0078ec:	012f4825 000442c0 3c0e8000 012e4825     %H/..B.....<%H..
9d0078fc:	00076840 000d6d42 000762c0 00067d42     @h..Bm...b..B}..
9d00790c:	018f6025 00065ac0 018e6025 00a72826     %`...Z..%`..&(..
9d00791c:	00ae2824 254fffff 2de107fe 10200047     $(....O%...-G. .
9d00792c:	00000000                                ....

9d007930 <Clab1>:
9d007930:	25afffff 	addiu	t7,t5,-1
9d007934:	2de107fe 	sltiu	at,t7,2046
9d007938:	1020006f 	beqz	at,9d007af8 <CspecB>
9d00793c:	00000000 	nop

9d007940 <Clab2>:
9d007940:	25affc02 	addiu	t7,t5,-1022
9d007944:	014f5021 	addu	t2,t2,t7
9d007948:	012c0019 	multu	t1,t4
9d00794c:	00003812 	mflo	a3
9d007950:	00007010 	mfhi	t6
9d007954:	010b0019 	multu	t0,t3
9d007958:	00002012 	mflo	a0
9d00795c:	00003010 	mfhi	a2
9d007960:	012b0019 	multu	t1,t3
9d007964:	00005812 	mflo	t3
9d007968:	00006810 	mfhi	t5
9d00796c:	00cb3021 	addu	a2,a2,t3
9d007970:	00cb782b 	sltu	t7,a2,t3
9d007974:	00ed3821 	addu	a3,a3,t5
9d007978:	00ef3821 	addu	a3,a3,t7
9d00797c:	10ed0002 	beq	a3,t5,9d007988 <L20>
9d007980:	00000000 	nop
9d007984:	00ed782b 	sltu	t7,a3,t5

9d007988 <L20>:
9d007988:	01cf7021 	addu	t6,t6,t7
9d00798c:	010c0019 	multu	t0,t4
9d007990:	00004012 	mflo	t0
9d007994:	00004810 	mfhi	t1
9d007998:	00c83021 	addu	a2,a2,t0
9d00799c:	00c8782b 	sltu	t7,a2,t0
9d0079a0:	00e93821 	addu	a3,a3,t1
9d0079a4:	00ef3821 	addu	a3,a3,t7
9d0079a8:	10e90002 	beq	a3,t1,9d0079b4 <L21>
9d0079ac:	00000000 	nop
9d0079b0:	00e9782b 	sltu	t7,a3,t1

9d0079b4 <L21>:
9d0079b4:	01cf7021 	addu	t6,t6,t7
9d0079b8:	00867825 	or	t7,a0,a2
9d0079bc:	11e00002 	beqz	t7,9d0079c8 <i13>
9d0079c0:	00000000 	nop
9d0079c4:	34e70001 	ori	a3,a3,0x1

9d0079c8 <i13>:
9d0079c8:	000e4825 	or	t1,zero,t6
9d0079cc:	05200006 	bltz	t1,9d0079e8 <i14>
9d0079d0:	00074025 	or	t0,zero,a3
9d0079d4:	0100782a 	slt	t7,t0,zero
9d0079d8:	01084021 	addu	t0,t0,t0
9d0079dc:	01294821 	addu	t1,t1,t1
9d0079e0:	012f4821 	addu	t1,t1,t7
9d0079e4:	254affff 	addiu	t2,t2,-1

9d0079e8 <i14>:
9d0079e8:	254fffff 	addiu	t7,t2,-1
9d0079ec:	2de107fe 	sltiu	at,t7,2046
9d0079f0:	10200068 	beqz	at,9d007b94 <Coveund>
9d0079f4:	00000000 	nop
9d0079f8:	25080400 	addiu	t0,t0,1024
9d0079fc:	2d0f0400 	sltiu	t7,t0,1024
9d007a00:	012f4821 	addu	t1,t1,t7
9d007a04:	012f782b 	sltu	t7,t1,t7
9d007a08:	014f5021 	addu	t2,t2,t7

9d007a0c <Clab8>:
9d007a0c:	00087ac2 	srl	t7,t0,0xb
9d007a10:	31ef0001 	andi	t7,t7,0x1
9d007a14:	010f4023 	subu	t0,t0,t7
9d007a18:	000822c2 	srl	a0,t0,0xb
9d007a1c:	00097d40 	sll	t7,t1,0x15
9d007a20:	008f2025 	or	a0,a0,t7
9d007a24:	00097840 	sll	t7,t1,0x1
9d007a28:	000f7b02 	srl	t7,t7,0xc
9d007a2c:	00af2825 	or	a1,a1,t7
9d007a30:	000a7d00 	sll	t7,t2,0x14
9d007a34:	00af2825 	or	a1,a1,t7

9d007a38 <Cret>:
9d007a38:	00041025 	or	v0,zero,a0
9d007a3c:	00051825 	or	v1,zero,a1

9d007a40 <C999>:
9d007a40:	03e00008 	jr	ra
9d007a44:	00000000 	nop

9d007a48 <CspecA>:
9d007a48:	0100782a 	slt	t7,t0,zero
9d007a4c:	01084021 	addu	t0,t0,t0
9d007a50:	01294821 	addu	t1,t1,t1
9d007a54:	1540001c 	bnez	t2,9d007ac8 <i15>
9d007a58:	012f4821 	addu	t1,t1,t7
9d007a5c:	01287825 	or	t7,t1,t0
9d007a60:	11e00014 	beqz	t7,9d007ab4 <i16>
9d007a64:	00000000 	nop
9d007a68:	15200008 	bnez	t1,9d007a8c <L22>
9d007a6c:	00000000 	nop
9d007a70:	15000003 	bnez	t0,9d007a80 <L23>
9d007a74:	00000000 	nop
9d007a78:	1000ffad 	b	9d007930 <Clab1>
9d007a7c:	240a0000 	li	t2,0

9d007a80 <L23>:
9d007a80:	01004825 	move	t1,t0
9d007a84:	24080000 	li	t0,0
9d007a88:	254affe0 	addiu	t2,t2,-32

9d007a8c <L22>:
9d007a8c:	712e7020 	clz	t6,t1
9d007a90:	11c0ffa7 	beqz	t6,9d007930 <Clab1>
9d007a94:	00000000 	nop
9d007a98:	014e5023 	subu	t2,t2,t6
9d007a9c:	000e3822 	neg	a3,t6
9d007aa0:	00e83806 	srlv	a3,t0,a3
9d007aa4:	01c84004 	sllv	t0,t0,t6
9d007aa8:	01c94804 	sllv	t1,t1,t6
9d007aac:	1000ffa0 	b	9d007930 <Clab1>
9d007ab0:	01274825 	or	t1,t1,a3

9d007ab4 <i16>:
9d007ab4:	240107ff 	li	at,2047
9d007ab8:	11a10033 	beq	t5,at,9d007b88 <Cnan>
9d007abc:	00000000 	nop
9d007ac0:	1000ffdd 	b	9d007a38 <Cret>
9d007ac4:	00000000 	nop

9d007ac8 <i15>:
9d007ac8:	01287825 	or	t7,t1,t0
9d007acc:	15e0002e 	bnez	t7,9d007b88 <Cnan>
9d007ad0:	00000000 	nop
9d007ad4:	15a00005 	bnez	t5,9d007aec <i17>
9d007ad8:	00000000 	nop
9d007adc:	000c7840 	sll	t7,t4,0x1
9d007ae0:	01eb7825 	or	t7,t7,t3
9d007ae4:	11e00028 	beqz	t7,9d007b88 <Cnan>
9d007ae8:	00000000 	nop

9d007aec <i17>:
9d007aec:	240107ff 	li	at,2047
9d007af0:	15a10021 	bne	t5,at,9d007b78 <Cinf>
9d007af4:	00000000 	nop

9d007af8 <CspecB>:
9d007af8:	0160782a 	slt	t7,t3,zero
9d007afc:	016b5821 	addu	t3,t3,t3
9d007b00:	018c6021 	addu	t4,t4,t4
9d007b04:	15a00019 	bnez	t5,9d007b6c <i18>
9d007b08:	018f6021 	addu	t4,t4,t7
9d007b0c:	018b7825 	or	t7,t4,t3
9d007b10:	11e00014 	beqz	t7,9d007b64 <i19>
9d007b14:	00000000 	nop
9d007b18:	15800008 	bnez	t4,9d007b3c <L25>
9d007b1c:	00000000 	nop
9d007b20:	15600003 	bnez	t3,9d007b30 <L26>
9d007b24:	00000000 	nop
9d007b28:	1000ff85 	b	9d007940 <Clab2>
9d007b2c:	240d0000 	li	t5,0

9d007b30 <L26>:
9d007b30:	01606025 	move	t4,t3
9d007b34:	240b0000 	li	t3,0
9d007b38:	25adffe0 	addiu	t5,t5,-32

9d007b3c <L25>:
9d007b3c:	71863020 	clz	a2,t4
9d007b40:	10c0ff7f 	beqz	a2,9d007940 <Clab2>
9d007b44:	00000000 	nop
9d007b48:	01a66823 	subu	t5,t5,a2
9d007b4c:	00067022 	neg	t6,a2
9d007b50:	01cb7006 	srlv	t6,t3,t6
9d007b54:	00cb5804 	sllv	t3,t3,a2
9d007b58:	00cc6004 	sllv	t4,t4,a2
9d007b5c:	1000ff78 	b	9d007940 <Clab2>
9d007b60:	018e6025 	or	t4,t4,t6

9d007b64 <i19>:
9d007b64:	1000ffb4 	b	9d007a38 <Cret>
9d007b68:	24040000 	li	a0,0

9d007b6c <i18>:
9d007b6c:	018b7825 	or	t7,t4,t3
9d007b70:	15e00005 	bnez	t7,9d007b88 <Cnan>
9d007b74:	00000000 	nop

9d007b78 <Cinf>:
9d007b78:	3c017ff0 	lui	at,0x7ff0
9d007b7c:	00a12825 	or	a1,a1,at
9d007b80:	1000ffad 	b	9d007a38 <Cret>
9d007b84:	24040000 	li	a0,0

9d007b88 <Cnan>:
9d007b88:	3c05fff8 	lui	a1,0xfff8
9d007b8c:	1000ffaa 	b	9d007a38 <Cret>
9d007b90:	24040000 	li	a0,0

9d007b94 <Coveund>:
9d007b94:	1d40fff8 	bgtz	t2,9d007b78 <Cinf>
9d007b98:	00000000 	nop
9d007b9c:	240e0001 	li	t6,1
9d007ba0:	01ca7023 	subu	t6,t6,t2

9d007ba4 <L28>:
9d007ba4:	2dc10020 	sltiu	at,t6,32
9d007ba8:	14200007 	bnez	at,9d007bc8 <L29>
9d007bac:	00000000 	nop
9d007bb0:	21ceffe0 	addi	t6,t6,-32
9d007bb4:	0008302b 	sltu	a2,zero,t0
9d007bb8:	1009000d 	beq	zero,t1,9d007bf0 <L30>
9d007bbc:	01264025 	or	t0,t1,a2
9d007bc0:	1000fff8 	b	9d007ba4 <L28>
9d007bc4:	34090000 	li	t1,0x0

9d007bc8 <L29>:
9d007bc8:	11c00009 	beqz	t6,9d007bf0 <L30>
9d007bcc:	00000000 	nop
9d007bd0:	000e3822 	neg	a3,t6
9d007bd4:	00e83004 	sllv	a2,t0,a3
9d007bd8:	00e93804 	sllv	a3,t1,a3
9d007bdc:	01c84006 	srlv	t0,t0,t6
9d007be0:	01c94806 	srlv	t1,t1,t6
9d007be4:	10c00002 	beqz	a2,9d007bf0 <L30>
9d007be8:	00e84025 	or	t0,a3,t0
9d007bec:	35080002 	ori	t0,t0,0x2

9d007bf0 <L30>:
9d007bf0:	25080400 	addiu	t0,t0,1024
9d007bf4:	2d0f0400 	sltiu	t7,t0,1024
9d007bf8:	012f4821 	addu	t1,t1,t7
9d007bfc:	1000ff83 	b	9d007a0c <Clab8>
9d007c00:	000957c2 	srl	t2,t1,0x1f
9d007c04:	00000000 	nop

Disassembly of section .text:

9d007c08 <sin_wave>:

}

//voltage for sine wave 
//v=vs[i], v= A*sin(2pi*t/sample rate) +B
float sin_wave(float t) {
9d007c08:	27bdffe8 	addiu	sp,sp,-24
9d007c0c:	afbf0014 	sw	ra,20(sp)
    return 1.65*sin(2*pi*t)+1.65;
9d007c10:	0f4022db 	jal	9d008b6c <__extendsfdf2>
9d007c14:	afb00010 	sw	s0,16(sp)
9d007c18:	3c049d00 	lui	a0,0x9d00
9d007c1c:	8c867490 	lw	a2,29840(a0)
9d007c20:	8c877494 	lw	a3,29844(a0)
9d007c24:	00402025 	move	a0,v0
9d007c28:	0f401e37 	jal	9d0078dc <__muldf3>
9d007c2c:	00602825 	move	a1,v1
9d007c30:	00402025 	move	a0,v0
9d007c34:	0f40210f 	jal	9d00843c <dpsin>
9d007c38:	00602825 	move	a1,v1
9d007c3c:	3c109d00 	lui	s0,0x9d00
9d007c40:	8e067498 	lw	a2,29848(s0)
9d007c44:	8e07749c 	lw	a3,29852(s0)
9d007c48:	00402025 	move	a0,v0
9d007c4c:	0f401e37 	jal	9d0078dc <__muldf3>
9d007c50:	00602825 	move	a1,v1
9d007c54:	8e067498 	lw	a2,29848(s0)
9d007c58:	8e07749c 	lw	a3,29852(s0)
9d007c5c:	00402025 	move	a0,v0
9d007c60:	0f401d2d 	jal	9d0074b4 <__adddf3>
9d007c64:	00602825 	move	a1,v1
9d007c68:	00402025 	move	a0,v0
9d007c6c:	0f4021fb 	jal	9d0087ec <__truncdfsf2>
9d007c70:	00602825 	move	a1,v1
}
9d007c74:	8fbf0014 	lw	ra,20(sp)
9d007c78:	8fb00010 	lw	s0,16(sp)
9d007c7c:	03e00008 	jr	ra
9d007c80:	27bd0018 	addiu	sp,sp,24

9d007c84 <tri_wave>:

//voltage for triangular wave
// consulted https://stackoverflow.com/questions/28588292/is-there-a-triangle-wave-function#:~:text=y%20%3D%20abs((x%2B%2B,oscillating%20between%203%20and%200.
// to create triangular wave
float tri_wave(float t) {
9d007c84:	27bdffe0 	addiu	sp,sp,-32
9d007c88:	afbf001c 	sw	ra,28(sp)
9d007c8c:	afb10018 	sw	s1,24(sp)
    int n = 1;
    float ix = t - floor(t);
9d007c90:	0f4022db 	jal	9d008b6c <__extendsfdf2>
9d007c94:	afb00014 	sw	s0,20(sp)
9d007c98:	00408025 	move	s0,v0
9d007c9c:	00608825 	move	s1,v1
9d007ca0:	00402025 	move	a0,v0
9d007ca4:	0f4021b9 	jal	9d0086e4 <dpfloor>
9d007ca8:	00602825 	move	a1,v1
9d007cac:	00403025 	move	a2,v0
9d007cb0:	00603825 	move	a3,v1
9d007cb4:	02002025 	move	a0,s0
9d007cb8:	0f401d2b 	jal	9d0074ac <__subdf3>
9d007cbc:	02202825 	move	a1,s1
9d007cc0:	00402025 	move	a0,v0
9d007cc4:	0f4021fb 	jal	9d0087ec <__truncdfsf2>
9d007cc8:	00602825 	move	a1,v1
9d007ccc:	00408025 	move	s0,v0
    if ( ix <= n/2){
9d007cd0:	00002825 	move	a1,zero
9d007cd4:	0f402306 	jal	9d008c18 <fpcmplt>
9d007cd8:	00402025 	move	a0,v0
9d007cdc:	1c400011 	bgtz	v0,9d007d24 <tri_wave+0xa0>
9d007ce0:	00000000 	nop
        return 1.65*ix; //ampltidue of 1.65
9d007ce4:	0f4022db 	jal	9d008b6c <__extendsfdf2>
9d007ce8:	02002025 	move	a0,s0
9d007cec:	3c049d00 	lui	a0,0x9d00
9d007cf0:	8c867498 	lw	a2,29848(a0)
9d007cf4:	8c87749c 	lw	a3,29852(a0)
9d007cf8:	00402025 	move	a0,v0
9d007cfc:	0f401e37 	jal	9d0078dc <__muldf3>
9d007d00:	00602825 	move	a1,v1
9d007d04:	00402025 	move	a0,v0
9d007d08:	0f4021fb 	jal	9d0087ec <__truncdfsf2>
9d007d0c:	00602825 	move	a1,v1
    }
    else{
        return 1.65-1.65*ix; //lower sloper
    }
        
}
9d007d10:	8fbf001c 	lw	ra,28(sp)
9d007d14:	8fb10018 	lw	s1,24(sp)
9d007d18:	8fb00014 	lw	s0,20(sp)
9d007d1c:	03e00008 	jr	ra
9d007d20:	27bd0020 	addiu	sp,sp,32
        return 1.65-1.65*ix; //lower sloper
9d007d24:	0f4022db 	jal	9d008b6c <__extendsfdf2>
9d007d28:	02002025 	move	a0,s0
9d007d2c:	3c109d00 	lui	s0,0x9d00
9d007d30:	8e067498 	lw	a2,29848(s0)
9d007d34:	8e07749c 	lw	a3,29852(s0)
9d007d38:	00402025 	move	a0,v0
9d007d3c:	0f401e37 	jal	9d0078dc <__muldf3>
9d007d40:	00602825 	move	a1,v1
9d007d44:	00403025 	move	a2,v0
9d007d48:	00603825 	move	a3,v1
9d007d4c:	8e047498 	lw	a0,29848(s0)
9d007d50:	0f401d2b 	jal	9d0074ac <__subdf3>
9d007d54:	8e05749c 	lw	a1,29852(s0)
9d007d58:	00402025 	move	a0,v0
9d007d5c:	0f4021fb 	jal	9d0087ec <__truncdfsf2>
9d007d60:	00602825 	move	a1,v1
9d007d64:	1000ffeb 	b	9d007d14 <tri_wave+0x90>
9d007d68:	8fbf001c 	lw	ra,28(sp)

9d007d6c <main>:
int main(){
9d007d6c:	27bdffc8 	addiu	sp,sp,-56
9d007d70:	afbf0034 	sw	ra,52(sp)
9d007d74:	afbe0030 	sw	s8,48(sp)
9d007d78:	afb7002c 	sw	s7,44(sp)
9d007d7c:	afb60028 	sw	s6,40(sp)
9d007d80:	afb50024 	sw	s5,36(sp)
9d007d84:	afb40020 	sw	s4,32(sp)
9d007d88:	afb3001c 	sw	s3,28(sp)
9d007d8c:	afb20018 	sw	s2,24(sp)
9d007d90:	afb10014 	sw	s1,20(sp)
    initSPI();
9d007d94:	0f402272 	jal	9d0089c8 <initSPI>
9d007d98:	afb00010 	sw	s0,16(sp)
    __builtin_enable_interrupts();
9d007d9c:	41626020 	ei	v0
    t = 0.0;
9d007da0:	00008825 	move	s1,zero

//bit created: [a_or_b 1 1 1 (10 bit voltage) 0 0]
unsigned short create_wave(int wave, float volt) {
    unsigned short p, check; 
    check = 1023*volt;
9d007da4:	3c169d00 	lui	s6,0x9d00
9d007da8:	8ed774a8 	lw	s7,29864(s6)
        LATAbits.LATA0 = 0;
9d007dac:	3c10bf88 	lui	s0,0xbf88
        while(_CP0_GET_COUNT() < 240000) {} 
9d007db0:	3c130003 	lui	s3,0x3
9d007db4:	3673a980 	ori	s3,s3,0xa980
        t += 0.01;
9d007db8:	3c029d00 	lui	v0,0x9d00
9d007dbc:	8c5474a0 	lw	s4,29856(v0)
9d007dc0:	8c5574a4 	lw	s5,29860(v0)
        v = sin_wave(t);
9d007dc4:	0f401f02 	jal	9d007c08 <sin_wave>
9d007dc8:	02202025 	move	a0,s1
    check = 1023*volt;
9d007dcc:	02e02825 	move	a1,s7
9d007dd0:	0f402032 	jal	9d0080c8 <__mulsf3>
9d007dd4:	00402025 	move	a0,v0
9d007dd8:	0f40236d 	jal	9d008db4 <__fixunssfsi>
9d007ddc:	00402025 	move	a0,v0
    p = wave << 12;
    p = p | (0b111 << 15);
    p = p | ((check) & 0b111111111111);
9d007de0:	30420fff 	andi	v0,v0,0xfff
9d007de4:	24038000 	li	v1,-32768
9d007de8:	00439025 	or	s2,v0,v1
        LATAbits.LATA0 = 0;
9d007dec:	92026030 	lbu	v0,24624(s0)
9d007df0:	7c020004 	ins	v0,zero,0x0,0x1
9d007df4:	a2026030 	sb	v0,24624(s0)
        spi_return = spi_io(p >> 8);
9d007df8:	3244ffff 	andi	a0,s2,0xffff
9d007dfc:	0f40229d 	jal	9d008a74 <spi_io>
9d007e00:	00042202 	srl	a0,a0,0x8
        spi_return = spi_io(p);
9d007e04:	0f40229d 	jal	9d008a74 <spi_io>
9d007e08:	324400ff 	andi	a0,s2,0xff
        LATAbits.LATA0 = 1; 
9d007e0c:	92026030 	lbu	v0,24624(s0)
9d007e10:	241e0001 	li	s8,1
9d007e14:	7fc20004 	ins	v0,s8,0x0,0x1
9d007e18:	a2026030 	sb	v0,24624(s0)
        v = tri_wave(t);
9d007e1c:	0f401f21 	jal	9d007c84 <tri_wave>
9d007e20:	02202025 	move	a0,s1
    check = 1023*volt;
9d007e24:	8ec574a8 	lw	a1,29864(s6)
9d007e28:	0f402032 	jal	9d0080c8 <__mulsf3>
9d007e2c:	00402025 	move	a0,v0
9d007e30:	0f40236d 	jal	9d008db4 <__fixunssfsi>
9d007e34:	00402025 	move	a0,v0
    p = p | ((check) & 0b111111111111);
9d007e38:	30420fff 	andi	v0,v0,0xfff
9d007e3c:	24039000 	li	v1,-28672
9d007e40:	00439025 	or	s2,v0,v1
        LATAbits.LATA0 = 0; 
9d007e44:	92026030 	lbu	v0,24624(s0)
9d007e48:	7c020004 	ins	v0,zero,0x0,0x1
9d007e4c:	a2026030 	sb	v0,24624(s0)
        spi_return = spi_io(p >> 8);
9d007e50:	3244ffff 	andi	a0,s2,0xffff
9d007e54:	0f40229d 	jal	9d008a74 <spi_io>
9d007e58:	00042202 	srl	a0,a0,0x8
        spi_return = spi_io(p);
9d007e5c:	0f40229d 	jal	9d008a74 <spi_io>
9d007e60:	324400ff 	andi	a0,s2,0xff
        LATAbits.LATA0 = 1; 
9d007e64:	92026030 	lbu	v0,24624(s0)
9d007e68:	7fc20004 	ins	v0,s8,0x0,0x1
9d007e6c:	a2026030 	sb	v0,24624(s0)
        _CP0_SET_COUNT(0);
9d007e70:	00001025 	move	v0,zero
9d007e74:	40824800 	mtc0	v0,c0_count
9d007e78:	000000c0 	ehb
        while(_CP0_GET_COUNT() < 240000) {} 
9d007e7c:	40024800 	mfc0	v0,c0_count
9d007e80:	0053102b 	sltu	v0,v0,s3
9d007e84:	1440fffd 	bnez	v0,9d007e7c <main+0x110>
9d007e88:	00000000 	nop
        t += 0.01;
9d007e8c:	0f4022db 	jal	9d008b6c <__extendsfdf2>
9d007e90:	02202025 	move	a0,s1
9d007e94:	02803025 	move	a2,s4
9d007e98:	02a03825 	move	a3,s5
9d007e9c:	00402025 	move	a0,v0
9d007ea0:	0f401d2d 	jal	9d0074b4 <__adddf3>
9d007ea4:	00602825 	move	a1,v1
9d007ea8:	00402025 	move	a0,v0
9d007eac:	0f4021fb 	jal	9d0087ec <__truncdfsf2>
9d007eb0:	00602825 	move	a1,v1
        v = sin_wave(t);
9d007eb4:	1000ffc3 	b	9d007dc4 <main+0x58>
9d007eb8:	00408825 	move	s1,v0

9d007ebc <create_wave>:
unsigned short create_wave(int wave, float volt) {
9d007ebc:	27bdffe8 	addiu	sp,sp,-24
9d007ec0:	afbf0014 	sw	ra,20(sp)
9d007ec4:	afb00010 	sw	s0,16(sp)
9d007ec8:	00808025 	move	s0,a0
9d007ecc:	00a02025 	move	a0,a1
    check = 1023*volt;
9d007ed0:	3c029d00 	lui	v0,0x9d00
9d007ed4:	0f402032 	jal	9d0080c8 <__mulsf3>
9d007ed8:	8c4574a8 	lw	a1,29864(v0)
9d007edc:	0f40236d 	jal	9d008db4 <__fixunssfsi>
9d007ee0:	00402025 	move	a0,v0
    p = p | ((check) & 0b111111111111);
9d007ee4:	30420fff 	andi	v0,v0,0xfff
    p = wave << 12;
9d007ee8:	00108300 	sll	s0,s0,0xc
    p = p | ((check) & 0b111111111111);
9d007eec:	00501025 	or	v0,v0,s0
9d007ef0:	3042ffff 	andi	v0,v0,0xffff
    
    return p;
}
9d007ef4:	34428000 	ori	v0,v0,0x8000
9d007ef8:	8fbf0014 	lw	ra,20(sp)
9d007efc:	8fb00010 	lw	s0,16(sp)
9d007f00:	03e00008 	jr	ra
9d007f04:	27bd0018 	addiu	sp,sp,24

9d007f08 <NU32DIP_Startup>:
#include "nu32dip.h"

void NU32DIP_Startup() {
9d007f08:	27bdfff8 	addiu	sp,sp,-8
9d007f0c:	afbf0004 	sw	ra,4(sp)
    __builtin_disable_interrupts(); // disable interrupts while initializing things
9d007f10:	41626000 	di	v0
9d007f14:	000000c0 	ehb

    // set the CP0 CONFIG register to indicate that kseg0 is cacheable (0x3)
    __builtin_mtc0(_CP0_CONFIG, _CP0_CONFIG_SELECT, 0xa4210583);
9d007f18:	3c02a421 	lui	v0,0xa421
9d007f1c:	24420583 	addiu	v0,v0,1411
9d007f20:	40828000 	mtc0	v0,c0_config
9d007f24:	000000c0 	ehb

    // 0 data RAM access wait states
    BMXCONbits.BMXWSDRM = 0x0;
9d007f28:	3c02bf88 	lui	v0,0xbf88
9d007f2c:	8c432000 	lw	v1,8192(v0)
9d007f30:	7c033184 	ins	v1,zero,0x6,0x1
9d007f34:	ac432000 	sw	v1,8192(v0)

    // enable multi vector interrupts
    INTCONbits.MVEC = 0x1;
9d007f38:	3c02bf88 	lui	v0,0xbf88
9d007f3c:	8c441000 	lw	a0,4096(v0)
9d007f40:	24030001 	li	v1,1
9d007f44:	7c646304 	ins	a0,v1,0xc,0x1
9d007f48:	ac441000 	sw	a0,4096(v0)

    // disable JTAG to get pins back
    DDPCONbits.JTAGEN = 0;
9d007f4c:	3c02bf81 	lui	v0,0xbf81
9d007f50:	9444f200 	lhu	a0,-3584(v0)
9d007f54:	7c0418c4 	ins	a0,zero,0x3,0x1
9d007f58:	a444f200 	sh	a0,-3584(v0)

    // do your TRIS and LAT commands here
    TRISBCLR = 0b110000; // B4 and B5 LEDs
9d007f5c:	3c02bf88 	lui	v0,0xbf88
9d007f60:	24040030 	li	a0,48
9d007f64:	ac446114 	sw	a0,24852(v0)
    TRISASET = 0b010000; // A4 user button
9d007f68:	3c02bf88 	lui	v0,0xbf88
9d007f6c:	24040010 	li	a0,16
9d007f70:	ac446018 	sw	a0,24600(v0)
    //NU32_LED1 = 1; // LED1 is off
    NU32DIP_YELLOW = 1;
9d007f74:	3c02bf88 	lui	v0,0xbf88
9d007f78:	94446130 	lhu	a0,24880(v0)
9d007f7c:	7c642944 	ins	a0,v1,0x5,0x1
9d007f80:	a4446130 	sh	a0,24880(v0)
    //NU32_LED2 = 0; // LED2 is on
    NU32DIP_GREEN = 0;
9d007f84:	94446130 	lhu	a0,24880(v0)
9d007f88:	7c042104 	ins	a0,zero,0x4,0x1
9d007f8c:	a4446130 	sh	a0,24880(v0)

    //UART1 pins
    U1RXRbits.U1RXR = 0b0000; // Set A2 to U1RX
9d007f90:	3c02bf81 	lui	v0,0xbf81
9d007f94:	9044fa50 	lbu	a0,-1456(v0)
9d007f98:	7c041804 	ins	a0,zero,0x0,0x4
9d007f9c:	a044fa50 	sb	a0,-1456(v0)
    RPB3Rbits.RPB3R = 0b0001; // Set B3 to U1TX
9d007fa0:	3c02bf81 	lui	v0,0xbf81
9d007fa4:	9044fb38 	lbu	a0,-1224(v0)
9d007fa8:	7c641804 	ins	a0,v1,0x0,0x4
9d007fac:	a044fb38 	sb	a0,-1224(v0)

    // turn on UART1 without an interrupt
    U1MODEbits.BRGH = 0; // set baud to NU32_DESIRED_BAUD
9d007fb0:	3c02bf80 	lui	v0,0xbf80
9d007fb4:	94446000 	lhu	a0,24576(v0)
9d007fb8:	7c0418c4 	ins	a0,zero,0x3,0x1
9d007fbc:	a4446000 	sh	a0,24576(v0)
    U1BRG = ((NU32DIP_SYS_FREQ / NU32DIP_DESIRED_BAUD) / 16) - 1;
9d007fc0:	3c04bf80 	lui	a0,0xbf80
9d007fc4:	2405000c 	li	a1,12
9d007fc8:	ac856040 	sw	a1,24640(a0)

    // 8 bit, no parity bit, and 1 stop bit (8N1 setup)
    U1MODEbits.PDSEL = 0;
9d007fcc:	94446000 	lhu	a0,24576(v0)
9d007fd0:	7c041044 	ins	a0,zero,0x1,0x2
9d007fd4:	a4446000 	sh	a0,24576(v0)
    U1MODEbits.STSEL = 0;
9d007fd8:	94446000 	lhu	a0,24576(v0)
9d007fdc:	7c040004 	ins	a0,zero,0x0,0x1
9d007fe0:	a4446000 	sh	a0,24576(v0)

    // configure TX & RX pins as output & input pins
    U1STAbits.UTXEN = 1;
9d007fe4:	3c04bf80 	lui	a0,0xbf80
9d007fe8:	8c856010 	lw	a1,24592(a0)
9d007fec:	7c655284 	ins	a1,v1,0xa,0x1
9d007ff0:	ac856010 	sw	a1,24592(a0)
    U1STAbits.URXEN = 1;
9d007ff4:	8c856010 	lw	a1,24592(a0)
9d007ff8:	7c656304 	ins	a1,v1,0xc,0x1
9d007ffc:	ac856010 	sw	a1,24592(a0)
    // configure without hardware flow control
    U1MODEbits.UEN = 0;
9d008000:	94446000 	lhu	a0,24576(v0)
9d008004:	7c044a04 	ins	a0,zero,0x8,0x2
9d008008:	a4446000 	sh	a0,24576(v0)

    // enable the uart
    U1MODEbits.ON = 1;
9d00800c:	94446000 	lhu	a0,24576(v0)
9d008010:	7c647bc4 	ins	a0,v1,0xf,0x1
9d008014:	a4446000 	sh	a0,24576(v0)

    __builtin_enable_interrupts();
9d008018:	41626020 	ei	v0
}
9d00801c:	8fbf0004 	lw	ra,4(sp)
9d008020:	03e00008 	jr	ra
9d008024:	27bd0008 	addiu	sp,sp,8

9d008028 <NU32DIP_ReadUART1>:
// block other functions until you get a '\r' or '\n'
// send the pointer to your char array and the number of elements in the array

void NU32DIP_ReadUART1(char * message, int maxLength) {
    char data = 0;
    int complete = 0, num_bytes = 0;
9d008028:	00001025 	move	v0,zero
    // loop until you get a '\r' or '\n'
    while (!complete) {
        if (U1STAbits.URXDA) { // if data is available
9d00802c:	3c0abf80 	lui	t2,0xbf80
            data = U1RXREG; // read the data
9d008030:	3c09bf80 	lui	t1,0xbf80
            if ((data == '\n') || (data == '\r')) {
9d008034:	2408000a 	li	t0,10
9d008038:	2407000d 	li	a3,13
        if (U1STAbits.URXDA) { // if data is available
9d00803c:	8d436010 	lw	v1,24592(t2)
9d008040:	30630001 	andi	v1,v1,0x1
9d008044:	1060fffd 	beqz	v1,9d00803c <NU32DIP_ReadUART1+0x14>
9d008048:	00000000 	nop
            data = U1RXREG; // read the data
9d00804c:	8d236030 	lw	v1,24624(t1)
9d008050:	7c031c20 	seb	v1,v1
            if ((data == '\n') || (data == '\r')) {
9d008054:	5068000b 	beql	v1,t0,9d008084 <NU32DIP_ReadUART1+0x5c>
9d008058:	00822021 	addu	a0,a0,v0
9d00805c:	10670008 	beq	v1,a3,9d008080 <NU32DIP_ReadUART1+0x58>
9d008060:	24460001 	addiu	a2,v0,1
                complete = 1;
            } else {
                message[num_bytes] = data;
                ++num_bytes;
                // roll over if the array is too small
                if (num_bytes >= maxLength) {
9d008064:	00c5302a 	slt	a2,a2,a1
                    num_bytes = 0;
9d008068:	244b0001 	addiu	t3,v0,1
                message[num_bytes] = data;
9d00806c:	00821021 	addu	v0,a0,v0
9d008070:	a0430000 	sb	v1,0(v0)
9d008074:	01601025 	move	v0,t3
9d008078:	1000fff0 	b	9d00803c <NU32DIP_ReadUART1+0x14>
9d00807c:	0006100a 	movz	v0,zero,a2
                }
            }
        }
    }
    // end the string
    message[num_bytes] = '\0';
9d008080:	00822021 	addu	a0,a0,v0
}
9d008084:	03e00008 	jr	ra
9d008088:	a0800000 	sb	zero,0(a0)

9d00808c <NU32DIP_WriteUART1>:

// Write a character array using UART1

void NU32DIP_WriteUART1(const char * string) {
    while (*string != '\0') {
9d00808c:	80820000 	lb	v0,0(a0)
9d008090:	1040000b 	beqz	v0,9d0080c0 <NU32DIP_WriteUART1+0x34>
9d008094:	3c06bf80 	lui	a2,0xbf80
        while (U1STAbits.UTXBF) {
            ; // wait until tx buffer isn't full
        }
        U1TXREG = *string;
9d008098:	3c05bf80 	lui	a1,0xbf80
        while (U1STAbits.UTXBF) {
9d00809c:	8cc36010 	lw	v1,24592(a2)
9d0080a0:	7c630240 	ext	v1,v1,0x9,0x1
9d0080a4:	1460fffd 	bnez	v1,9d00809c <NU32DIP_WriteUART1+0x10>
9d0080a8:	00000000 	nop
        U1TXREG = *string;
9d0080ac:	aca26020 	sw	v0,24608(a1)
        ++string;
9d0080b0:	24840001 	addiu	a0,a0,1
    while (*string != '\0') {
9d0080b4:	80820000 	lb	v0,0(a0)
9d0080b8:	1440fff8 	bnez	v0,9d00809c <NU32DIP_WriteUART1+0x10>
9d0080bc:	00000000 	nop
    }
}
9d0080c0:	03e00008 	jr	ra
9d0080c4:	00000000 	nop

Disassembly of section .text.fp32mul:

9d0080c8 <__mulsf3>:
9d0080c8:	00043dc2 30e700ff 00054dc2 312900ff     .=.....0.M....)1
9d0080d8:	3c0a8000 00043200 00ca3025 00054200     ...<.2..%0...B..
9d0080e8:	010a4025 00856026 014c5024 24ecffff     %@..&`..$PL....$
9d0080f8:	2d8100fe 10200021 00000000              ...-!. .....

9d008104 <Clab1>:
9d008104:	252cffff 	addiu	t4,t1,-1
9d008108:	2d8100fe 	sltiu	at,t4,254
9d00810c:	10200036 	beqz	at,9d0081e8 <CspecB>
9d008110:	00000000 	nop

9d008114 <Clab2>:
9d008114:	00c80019 	multu	a2,t0
9d008118:	00005812 	mflo	t3
9d00811c:	11600002 	beqz	t3,9d008128 <i17>
9d008120:	00003010 	mfhi	a2
9d008124:	34c60001 	ori	a2,a2,0x1

9d008128 <i17>:
9d008128:	04c00003 	bltz	a2,9d008138 <i18>
9d00812c:	00000000 	nop
9d008130:	00063040 	sll	a2,a2,0x1
9d008134:	24e7ffff 	addiu	a3,a3,-1

9d008138 <i18>:
9d008138:	252cff82 	addiu	t4,t1,-126
9d00813c:	00ec3821 	addu	a3,a3,t4
9d008140:	24ecffff 	addiu	t4,a3,-1
9d008144:	2d8100fe 	sltiu	at,t4,254
9d008148:	1020003a 	beqz	at,9d008234 <Coveund>
9d00814c:	00000000 	nop

9d008150 <Clab8>:
9d008150:	24c60080 	addiu	a2,a2,128
9d008154:	2ccc0080 	sltiu	t4,a2,128
9d008158:	00ec3821 	addu	a3,a3,t4
9d00815c:	00066202 	srl	t4,a2,0x8
9d008160:	318c0001 	andi	t4,t4,0x1
9d008164:	00cc3023 	subu	a2,a2,t4
9d008168:	00063040 	sll	a2,a2,0x1
9d00816c:	00063242 	srl	a2,a2,0x9
9d008170:	000765c0 	sll	t4,a3,0x17
9d008174:	00cc3025 	or	a2,a2,t4
9d008178:	00ca1025 	or	v0,a2,t2

9d00817c <C999>:
9d00817c:	03e00008 	jr	ra
9d008180:	00000000 	nop

9d008184 <CspecA>:
9d008184:	14e0000d 	bnez	a3,9d0081bc <i19>
9d008188:	00000000 	nop
9d00818c:	00c63021 	addu	a2,a2,a2
9d008190:	10c00005 	beqz	a2,9d0081a8 <i20>
9d008194:	00000000 	nop
9d008198:	70cb5820 	clz	t3,a2
9d00819c:	00eb3823 	subu	a3,a3,t3
9d0081a0:	1000ffd8 	b	9d008104 <Clab1>
9d0081a4:	01663004 	sllv	a2,a2,t3

9d0081a8 <i20>:
9d0081a8:	240100ff 	li	at,255
9d0081ac:	1121001f 	beq	t1,at,9d00822c <Cnan>
9d0081b0:	00000000 	nop
9d0081b4:	10000015 	b	9d00820c <Czer>
9d0081b8:	00000000 	nop

9d0081bc <i19>:
9d0081bc:	00c66021 	addu	t4,a2,a2
9d0081c0:	1580001a 	bnez	t4,9d00822c <Cnan>
9d0081c4:	00000000 	nop
9d0081c8:	15200004 	bnez	t1,9d0081dc <i21>
9d0081cc:	00000000 	nop
9d0081d0:	01086021 	addu	t4,t0,t0
9d0081d4:	11800015 	beqz	t4,9d00822c <Cnan>
9d0081d8:	00000000 	nop

9d0081dc <i21>:
9d0081dc:	240100ff 	li	at,255
9d0081e0:	1521000f 	bne	t1,at,9d008220 <Cinf>
9d0081e4:	00000000 	nop

9d0081e8 <CspecB>:
9d0081e8:	1520000a 	bnez	t1,9d008214 <i22>
9d0081ec:	00000000 	nop
9d0081f0:	01084021 	addu	t0,t0,t0
9d0081f4:	11000005 	beqz	t0,9d00820c <Czer>
9d0081f8:	00000000 	nop
9d0081fc:	710b5820 	clz	t3,t0
9d008200:	012b4823 	subu	t1,t1,t3
9d008204:	1000ffc3 	b	9d008114 <Clab2>
9d008208:	01684004 	sllv	t0,t0,t3

9d00820c <Czer>:
9d00820c:	1000ffdb 	b	9d00817c <C999>
9d008210:	000a1025 	or	v0,zero,t2

9d008214 <i22>:
9d008214:	01086021 	addu	t4,t0,t0
9d008218:	15800004 	bnez	t4,9d00822c <Cnan>
9d00821c:	00000000 	nop

9d008220 <Cinf>:
9d008220:	3c017f80 	lui	at,0x7f80
9d008224:	1000ffd5 	b	9d00817c <C999>
9d008228:	01411025 	or	v0,t2,at

9d00822c <Cnan>:
9d00822c:	1000ffd3 	b	9d00817c <C999>
9d008230:	3c02ffc0 	lui	v0,0xffc0

9d008234 <Coveund>:
9d008234:	1ce0fffa 	bgtz	a3,9d008220 <Cinf>
9d008238:	00000000 	nop
9d00823c:	240b0001 	li	t3,1
9d008240:	01675823 	subu	t3,t3,a3
9d008244:	2d610020 	sltiu	at,t3,32
9d008248:	1020fff0 	beqz	at,9d00820c <Czer>
9d00824c:	00000000 	nop
9d008250:	240c0020 	li	t4,32
9d008254:	018b6023 	subu	t4,t4,t3
9d008258:	01863804 	sllv	a3,a2,t4
9d00825c:	10e00002 	beqz	a3,9d008268 <i25>
9d008260:	01663006 	srlv	a2,a2,t3
9d008264:	34c60002 	ori	a2,a2,0x2

9d008268 <i25>:
9d008268:	24070000 	li	a3,0
9d00826c:	24cc0080 	addiu	t4,a2,128
9d008270:	0581ffb7 	bgez	t4,9d008150 <Clab8>
9d008274:	00000000 	nop
9d008278:	1000ffb5 	b	9d008150 <Clab8>
9d00827c:	24070001 	li	a3,1
9d008280:	00000000 	nop

Disassembly of section .text.libm:

9d008284 <reduct>:
9d008284:	00054040 00084542 00053ac0 00047d42     @@..BE...:..B}..
9d008294:	00ef3825 000432c0 3c018000 00e13825     %8...2.....<%8..
9d0082a4:	2509fc02 0520005a 00000000 29210041     ...%Z. .....A.!)
9d0082b4:	1020005c 00000000 00063042 00077fc0     \. .....B0......
9d0082c4:	00cf3025 00073842 3c0e6000 3c0d10b4     %0..B8...`.<...<
9d0082d4:	35ad611a 3c0c6487 358ced51 240affff     .a.5.d.<Q..5...$
9d0082e4:	240b0000                                ...$

9d0082e8 <Alab3>:
9d0082e8:	000a5040 	sll	t2,t2,0x1
9d0082ec:	016e782b 	sltu	t7,t3,t6
9d0082f0:	016e5823 	subu	t3,t3,t6
9d0082f4:	00cf102b 	sltu	v0,a2,t7
9d0082f8:	00cf3023 	subu	a2,a2,t7
9d0082fc:	00cd782b 	sltu	t7,a2,t5
9d008300:	01e27825 	or	t7,t7,v0
9d008304:	00cd3023 	subu	a2,a2,t5
9d008308:	00ef102b 	sltu	v0,a3,t7
9d00830c:	00ef3823 	subu	a3,a3,t7
9d008310:	00ec782b 	sltu	t7,a3,t4
9d008314:	01e27825 	or	t7,t7,v0
9d008318:	11e0000e 	beqz	t7,9d008354 <i1>
9d00831c:	00ec3823 	subu	a3,a3,t4
9d008320:	016e5821 	addu	t3,t3,t6
9d008324:	016e782b 	sltu	t7,t3,t6
9d008328:	00cd3021 	addu	a2,a2,t5
9d00832c:	00cf3021 	addu	a2,a2,t7
9d008330:	10cd0002 	beq	a2,t5,9d00833c <L1>
9d008334:	00000000 	nop
9d008338:	00cd782b 	sltu	t7,a2,t5

9d00833c <L1>:
9d00833c:	00ec3821 	addu	a3,a3,t4
9d008340:	00ef3821 	addu	a3,a3,t7
9d008344:	10ec0002 	beq	a3,t4,9d008350 <L2>
9d008348:	00000000 	nop
9d00834c:	00ec782b 	sltu	t7,a3,t4

9d008350 <L2>:
9d008350:	254a0001 	addiu	t2,t2,1

9d008354 <i1>:
9d008354:	0160782a 	slt	t7,t3,zero
9d008358:	016b5821 	addu	t3,t3,t3
9d00835c:	00c0102a 	slt	v0,a2,zero
9d008360:	00c63021 	addu	a2,a2,a2
9d008364:	00cf3021 	addu	a2,a2,t7
9d008368:	00027825 	or	t7,zero,v0
9d00836c:	00e73821 	addu	a3,a3,a3
9d008370:	00ef3821 	addu	a3,a3,t7
9d008374:	2529ffff 	addiu	t1,t1,-1
9d008378:	0521ffdb 	bgez	t1,9d0082e8 <Alab3>
9d00837c:	00000000 	nop
9d008380:	2401ffff 	li	at,-1
9d008384:	01415026 	xor	t2,t2,at
9d008388:	314f0001 	andi	t7,t2,0x1
9d00838c:	11e00012 	beqz	t7,9d0083d8 <i2>
9d008390:	00000000 	nop
9d008394:	000b4825 	or	t1,zero,t3
9d008398:	000e5840 	sll	t3,t6,0x1
9d00839c:	0169782b 	sltu	t7,t3,t1
9d0083a0:	01695823 	subu	t3,t3,t1
9d0083a4:	00064825 	or	t1,zero,a2
9d0083a8:	3c062168 	lui	a2,0x2168
9d0083ac:	34c6c234 	ori	a2,a2,0xc234
9d0083b0:	00cf102b 	sltu	v0,a2,t7
9d0083b4:	00cf3023 	subu	a2,a2,t7
9d0083b8:	00c9782b 	sltu	t7,a2,t1
9d0083bc:	01e27825 	or	t7,t7,v0
9d0083c0:	00c93023 	subu	a2,a2,t1
9d0083c4:	00074825 	or	t1,zero,a3
9d0083c8:	3c07c90f 	lui	a3,0xc90f
9d0083cc:	34e7daa2 	ori	a3,a3,0xdaa2
9d0083d0:	00ef3823 	subu	a3,a3,t7
9d0083d4:	00e93823 	subu	a3,a3,t1

9d0083d8 <i2>:
9d0083d8:	240803fe 	li	t0,1022

9d0083dc <b3>:
9d0083dc:	04e0000b 	bltz	a3,9d00840c <i3>
9d0083e0:	00000000 	nop
9d0083e4:	0160782a 	slt	t7,t3,zero
9d0083e8:	016b5821 	addu	t3,t3,t3
9d0083ec:	00c0102a 	slt	v0,a2,zero
9d0083f0:	00c63021 	addu	a2,a2,a2
9d0083f4:	00cf3021 	addu	a2,a2,t7
9d0083f8:	00027825 	or	t7,zero,v0
9d0083fc:	00e73821 	addu	a3,a3,a3
9d008400:	00ef3821 	addu	a3,a3,t7
9d008404:	1000fff5 	b	9d0083dc <b3>
9d008408:	2508ffff 	addiu	t0,t0,-1

9d00840c <i3>:
9d00840c:	000a7f40 	sll	t7,t2,0x1d
9d008410:	010f4025 	or	t0,t0,t7

9d008414 <Aret2>:
9d008414:	00061025 	or	v0,zero,a2
9d008418:	00071825 	or	v1,zero,a3
9d00841c:	0008c025 	or	t8,zero,t0

9d008420 <A999>:
9d008420:	03e00008 	jr	ra
9d008424:	00000000 	nop

9d008428 <Anan>:
9d008428:	2408ffff 	li	t0,-1
9d00842c:	3c07c000 	lui	a3,0xc000
9d008430:	1000fff8 	b	9d008414 <Aret2>
9d008434:	24060000 	li	a2,0
9d008438:	00000000 	nop

Disassembly of section .text:

9d00843c <dpsin>:
9d00843c:	27bdffd0 	addiu	sp,sp,-48
9d008440:	afbf0000 	sw	ra,0(sp)
9d008444:	afa40004 	sw	a0,4(sp)
9d008448:	0f4020a1 	jal	9d008284 <reduct>
9d00844c:	afa50008 	sw	a1,8(sp)
9d008450:	00184825 	or	t1,zero,t8
9d008454:	00034025 	or	t0,zero,v1
9d008458:	00023825 	or	a3,zero,v0
9d00845c:	8fa50008 	lw	a1,8(sp)
9d008460:	8fa40004 	lw	a0,4(sp)
9d008464:	00a92826 	xor	a1,a1,t1
9d008468:	3c018000 	lui	at,0x8000
9d00846c:	00a12824 	and	a1,a1,at
9d008470:	2401ffff 	li	at,-1
9d008474:	1121004a 	beq	t1,at,9d0085a0 <Bret>
9d008478:	00000000 	nop
9d00847c:	00093742 	srl	a2,t1,0x1d
9d008480:	312907ff 	andi	t1,t1,0x7ff
9d008484:	afa50008 	sw	a1,8(sp)
9d008488:	afa6000c 	sw	a2,12(sp)
9d00848c:	afa70010 	sw	a3,16(sp)
9d008490:	afa80014 	sw	t0,20(sp)
9d008494:	afa90018 	sw	t1,24(sp)
9d008498:	00072025 	or	a0,zero,a3
9d00849c:	00082825 	or	a1,zero,t0
9d0084a0:	0f4022a7 	jal	9d008a9c <exmul>
9d0084a4:	00093025 	or	a2,zero,t1
9d0084a8:	00186025 	or	t4,zero,t8
9d0084ac:	00035825 	or	t3,zero,v1
9d0084b0:	00025025 	or	t2,zero,v0
9d0084b4:	8fa90018 	lw	t1,24(sp)
9d0084b8:	8fa80014 	lw	t0,20(sp)
9d0084bc:	8fa70010 	lw	a3,16(sp)
9d0084c0:	8fa6000c 	lw	a2,12(sp)
9d0084c4:	8fa50008 	lw	a1,8(sp)
9d0084c8:	8fa40004 	lw	a0,4(sp)
9d0084cc:	24cdffff 	addiu	t5,a2,-1
9d0084d0:	31ad0002 	andi	t5,t5,0x2
9d0084d4:	11a0001c 	beqz	t5,9d008548 <i4>
9d0084d8:	00000000 	nop
9d0084dc:	000a2025 	or	a0,zero,t2
9d0084e0:	000b2825 	or	a1,zero,t3
9d0084e4:	000c3025 	or	a2,zero,t4
9d0084e8:	24070005 	li	a3,5
9d0084ec:	3c08a000 	lui	t0,0xa000
9d0084f0:	0f402176 	jal	9d0085d8 <sigmax>
9d0084f4:	25080000 	addiu	t0,t0,0
9d0084f8:	afa2001c 	sw	v0,28(sp)
9d0084fc:	afa30020 	sw	v1,32(sp)
9d008500:	afb80024 	sw	t8,36(sp)
9d008504:	00022025 	or	a0,zero,v0
9d008508:	00032825 	or	a1,zero,v1
9d00850c:	00183025 	or	a2,zero,t8
9d008510:	8fa70010 	lw	a3,16(sp)
9d008514:	8fa80014 	lw	t0,20(sp)
9d008518:	0f4022a7 	jal	9d008a9c <exmul>
9d00851c:	8fa90018 	lw	t1,24(sp)
9d008520:	00184825 	or	t1,zero,t8
9d008524:	00034025 	or	t0,zero,v1
9d008528:	00023825 	or	a3,zero,v0
9d00852c:	8fac0024 	lw	t4,36(sp)
9d008530:	8fab0020 	lw	t3,32(sp)
9d008534:	8faa001c 	lw	t2,28(sp)
9d008538:	8fa6000c 	lw	a2,12(sp)
9d00853c:	8fa50008 	lw	a1,8(sp)
9d008540:	10000017 	b	9d0085a0 <Bret>
9d008544:	8fa40004 	lw	a0,4(sp)

9d008548 <i4>:
9d008548:	afa40004 	sw	a0,4(sp)
9d00854c:	afa50008 	sw	a1,8(sp)
9d008550:	afa6000c 	sw	a2,12(sp)
9d008554:	afaa001c 	sw	t2,28(sp)
9d008558:	afab0020 	sw	t3,32(sp)
9d00855c:	afac0024 	sw	t4,36(sp)
9d008560:	000a2025 	or	a0,zero,t2
9d008564:	000b2825 	or	a1,zero,t3
9d008568:	000c3025 	or	a2,zero,t4
9d00856c:	24070005 	li	a3,5
9d008570:	3c08a000 	lui	t0,0xa000
9d008574:	0f402176 	jal	9d0085d8 <sigmax>
9d008578:	25080038 	addiu	t0,t0,56
9d00857c:	00184825 	or	t1,zero,t8
9d008580:	00034025 	or	t0,zero,v1
9d008584:	00023825 	or	a3,zero,v0
9d008588:	8fac0024 	lw	t4,36(sp)
9d00858c:	8fab0020 	lw	t3,32(sp)
9d008590:	8faa001c 	lw	t2,28(sp)
9d008594:	8fa6000c 	lw	a2,12(sp)
9d008598:	8fa50008 	lw	a1,8(sp)
9d00859c:	8fa40004 	lw	a0,4(sp)

9d0085a0 <Bret>:
9d0085a0:	000722c2 	srl	a0,a3,0xb
9d0085a4:	00086d40 	sll	t5,t0,0x15
9d0085a8:	008d2025 	or	a0,a0,t5
9d0085ac:	00086840 	sll	t5,t0,0x1
9d0085b0:	000d6b02 	srl	t5,t5,0xc
9d0085b4:	00ad2825 	or	a1,a1,t5
9d0085b8:	00096d00 	sll	t5,t1,0x14
9d0085bc:	00ad2825 	or	a1,a1,t5
9d0085c0:	00041025 	or	v0,zero,a0
9d0085c4:	00051825 	or	v1,zero,a1

9d0085c8 <B999>:
9d0085c8:	8fbf0000 	lw	ra,0(sp)
9d0085cc:	03e00008 	jr	ra
9d0085d0:	27bd0030 	addiu	sp,sp,48
9d0085d4:	00000000 	nop

Disassembly of section .text.libm:

9d0085d8 <sigmax>:
9d0085d8:	240903fe 01264823                       ...$#H&.

9d0085e0 <L1>:
9d0085e0:	2d210020 	sltiu	at,t1,32
9d0085e4:	14200005 	bnez	at,9d0085fc <L2>
9d0085e8:	00000000 	nop
9d0085ec:	00052025 	or	a0,zero,a1
9d0085f0:	24050000 	li	a1,0
9d0085f4:	1480fffa 	bnez	a0,9d0085e0 <L1>
9d0085f8:	2529ffe0 	addiu	t1,t1,-32

9d0085fc <L2>:
9d0085fc:	11200008 	beqz	t1,9d008620 <L3>
9d008600:	00000000 	nop
9d008604:	00055025 	or	t2,zero,a1
9d008608:	01242006 	srlv	a0,a0,t1
9d00860c:	01252806 	srlv	a1,a1,t1
9d008610:	240c0020 	li	t4,32
9d008614:	01894823 	subu	t1,t4,t1
9d008618:	012a5004 	sllv	t2,t2,t1
9d00861c:	008a2025 	or	a0,a0,t2

9d008620 <L3>:
9d008620:	8d0a0000 	lw	t2,0(t0)
9d008624:	25080004 	addiu	t0,t0,4
9d008628:	8d0b0000 	lw	t3,0(t0)
9d00862c:	25080004 	addiu	t0,t0,4

9d008630 <b1>:
9d008630:	00aa0019 	multu	a1,t2
9d008634:	00005010 	mfhi	t2
9d008638:	00ab0019 	multu	a1,t3
9d00863c:	00004812 	mflo	t1
9d008640:	00003010 	mfhi	a2
9d008644:	01495021 	addu	t2,t2,t1
9d008648:	0149602b 	sltu	t4,t2,t1
9d00864c:	00cc3021 	addu	a2,a2,t4
9d008650:	008b0019 	multu	a0,t3
9d008654:	00004810 	mfhi	t1
9d008658:	01495021 	addu	t2,t2,t1
9d00865c:	0149602b 	sltu	t4,t2,t1
9d008660:	05610005 	bgez	t3,9d008678 <i2>
9d008664:	00cc3021 	addu	a2,a2,t4
9d008668:	0144602b 	sltu	t4,t2,a0
9d00866c:	01445023 	subu	t2,t2,a0
9d008670:	00cc3023 	subu	a2,a2,t4
9d008674:	00c53023 	subu	a2,a2,a1

9d008678 <i2>:
9d008678:	00065825 	or	t3,zero,a2
9d00867c:	8d090000 	lw	t1,0(t0)
9d008680:	25080004 	addiu	t0,t0,4
9d008684:	8d060000 	lw	a2,0(t0)
9d008688:	25080004 	addiu	t0,t0,4
9d00868c:	01495021 	addu	t2,t2,t1
9d008690:	0149602b 	sltu	t4,t2,t1
9d008694:	01665821 	addu	t3,t3,a2
9d008698:	016c5821 	addu	t3,t3,t4
9d00869c:	24e7ffff 	addiu	a3,a3,-1
9d0086a0:	04e1ffe3 	bgez	a3,9d008630 <b1>
9d0086a4:	00000000 	nop
9d0086a8:	05600006 	bltz	t3,9d0086c4 <i3>
9d0086ac:	240603ff 	li	a2,1023
9d0086b0:	0140602a 	slt	t4,t2,zero
9d0086b4:	014a5021 	addu	t2,t2,t2
9d0086b8:	016b5821 	addu	t3,t3,t3
9d0086bc:	016c5821 	addu	t3,t3,t4
9d0086c0:	24c6ffff 	addiu	a2,a2,-1

9d0086c4 <i3>:
9d0086c4:	000a2025 	or	a0,zero,t2
9d0086c8:	000b2825 	or	a1,zero,t3
9d0086cc:	00041025 	or	v0,zero,a0
9d0086d0:	00051825 	or	v1,zero,a1
9d0086d4:	0006c025 	or	t8,zero,a2

9d0086d8 <A999>:
9d0086d8:	03e00008 	jr	ra
9d0086dc:	00000000 	nop
9d0086e0:	00000000 	nop

Disassembly of section .text:

9d0086e4 <dpfloor>:
9d0086e4:	3c018000 00a13024 00053840 00073d42     ...<$0..@8..B=..
9d0086f4:	240107ff 10e1002b 00000000 24090433     ...$+.......3..$
9d008704:	01273823 2ce10035 1420000b 00000000     #8'.5..,.. .....
9d008714:	04e00020 00000000 10c0002d 00000000      .......-.......
9d008724:	00054840 01244825 15200026 00000000     @H..%H$.&. .....
9d008734:	10000027 00000000                       '.......

9d00873c <i1>:
9d00873c:	10c00005 	beqz	a2,9d008754 <i3>
9d008740:	00000000 	nop
9d008744:	0004482b 	sltu	t1,zero,a0
9d008748:	00042023 	negu	a0,a0
9d00874c:	00052823 	negu	a1,a1
9d008750:	00a92823 	subu	a1,a1,t1

9d008754 <i3>:
9d008754:	30e9001f 	andi	t1,a3,0x1f
9d008758:	24080001 	li	t0,1
9d00875c:	01284004 	sllv	t0,t0,t1
9d008760:	00084023 	negu	t0,t0
9d008764:	2ce10020 	sltiu	at,a3,32
9d008768:	14200004 	bnez	at,9d00877c <i4>
9d00876c:	00000000 	nop
9d008770:	24040000 	li	a0,0
9d008774:	10000002 	b	9d008780 <e4>
9d008778:	00a82824 	and	a1,a1,t0

9d00877c <i4>:
9d00877c:	00882024 	and	a0,a0,t0

9d008780 <e4>:
9d008780:	10c00005 	beqz	a2,9d008798 <Aret>
9d008784:	00000000 	nop
9d008788:	0004482b 	sltu	t1,zero,a0
9d00878c:	00042023 	negu	a0,a0
9d008790:	00052823 	negu	a1,a1
9d008794:	00a92823 	subu	a1,a1,t1

9d008798 <Aret>:
9d008798:	00041025 	or	v0,zero,a0
9d00879c:	00051825 	or	v1,zero,a1

9d0087a0 <A999>:
9d0087a0:	03e00008 	jr	ra
9d0087a4:	00000000 	nop

9d0087a8 <Aspec>:
9d0087a8:	3c01000f 	lui	at,0xf
9d0087ac:	3421ffff 	ori	at,at,0xffff
9d0087b0:	00a14824 	and	t1,a1,at
9d0087b4:	01244825 	or	t1,t1,a0
9d0087b8:	15200009 	bnez	t1,9d0087e0 <Anan>
9d0087bc:	00000000 	nop
9d0087c0:	1000fff5 	b	9d008798 <Aret>
9d0087c4:	00000000 	nop

9d0087c8 <Amin1>:
9d0087c8:	3c05bff0 	lui	a1,0xbff0
9d0087cc:	1000fff2 	b	9d008798 <Aret>
9d0087d0:	24040000 	li	a0,0

9d0087d4 <Azer>:
9d0087d4:	00062825 	or	a1,zero,a2
9d0087d8:	1000ffef 	b	9d008798 <Aret>
9d0087dc:	24040000 	li	a0,0

9d0087e0 <Anan>:
9d0087e0:	3c05fff8 	lui	a1,0xfff8
9d0087e4:	1000ffec 	b	9d008798 <Aret>
9d0087e8:	24040000 	li	a0,0

Disassembly of section .text.dptofp:

9d0087ec <__truncdfsf2>:
9d0087ec:	00053ac0 00045d42 00eb3825 000432c0     .:..B]..%8...2..
9d0087fc:	3c018000 00e13825 3c018000 00a14824     ...<%8.....<$H..
9d00880c:	00054040 00084542 2508fc80 250bffff     @@..BE.....%...%
9d00881c:	2d6100fe 10200012 00000000              ..a-.. .....

9d008828 <Hlab1>:
9d008828:	10c00002 	beqz	a2,9d008834 <i45>
9d00882c:	00000000 	nop
9d008830:	34e70001 	ori	a3,a3,0x1

9d008834 <i45>:
9d008834:	24e70080 	addiu	a3,a3,128
9d008838:	2ceb0080 	sltiu	t3,a3,128
9d00883c:	010b4021 	addu	t0,t0,t3
9d008840:	00075a02 	srl	t3,a3,0x8
9d008844:	316b0001 	andi	t3,t3,0x1
9d008848:	00eb3823 	subu	a3,a3,t3
9d00884c:	00073840 	sll	a3,a3,0x1
9d008850:	00073a42 	srl	a3,a3,0x9
9d008854:	00085dc0 	sll	t3,t0,0x17
9d008858:	00eb3825 	or	a3,a3,t3
9d00885c:	00e91025 	or	v0,a3,t1

9d008860 <H999>:
9d008860:	03e00008 	jr	ra
9d008864:	00000000 	nop
9d008868:	00000000 	nop

9d00886c <Hspec>:
9d00886c:	2401047f 	li	at,1151
9d008870:	15010007 	bne	t0,at,9d008890 <i46>
9d008874:	00000000 	nop
9d008878:	00075840 	sll	t3,a3,0x1
9d00887c:	01665825 	or	t3,t3,a2
9d008880:	11600003 	beqz	t3,9d008890 <i46>
9d008884:	00000000 	nop
9d008888:	1000fff5 	b	9d008860 <H999>
9d00888c:	3c02ffc0 	lui	v0,0xffc0

9d008890 <i46>:
9d008890:	290100ff 	slti	at,t0,255
9d008894:	14200004 	bnez	at,9d0088a8 <i48>
9d008898:	00000000 	nop
9d00889c:	3c017f80 	lui	at,0x7f80
9d0088a0:	1000ffef 	b	9d008860 <H999>
9d0088a4:	01211025 	or	v0,t1,at

9d0088a8 <i48>:
9d0088a8:	240a0001 	li	t2,1
9d0088ac:	01485023 	subu	t2,t2,t0
9d0088b0:	2d410020 	sltiu	at,t2,32
9d0088b4:	14200003 	bnez	at,9d0088c4 <i49>
9d0088b8:	00000000 	nop
9d0088bc:	1000ffe8 	b	9d008860 <H999>
9d0088c0:	00091025 	or	v0,zero,t1

9d0088c4 <i49>:
9d0088c4:	240c0020 	li	t4,32
9d0088c8:	018a6023 	subu	t4,t4,t2
9d0088cc:	01875804 	sllv	t3,a3,t4
9d0088d0:	00cb3025 	or	a2,a2,t3
9d0088d4:	01473806 	srlv	a3,a3,t2
9d0088d8:	24080000 	li	t0,0
9d0088dc:	3c018000 	lui	at,0x8000
9d0088e0:	1000ffd1 	b	9d008828 <Hlab1>
9d0088e4:	00e13825 	or	a3,a3,at
9d0088e8:	00000000 	nop

Disassembly of section .text.general_exception:

9d0088ec <_general_exception_context>:
9d0088ec:	27bdffa8 	addiu	sp,sp,-88
9d0088f0:	afa10004 	sw	at,4(sp)
9d0088f4:	afa20008 	sw	v0,8(sp)
9d0088f8:	afa3000c 	sw	v1,12(sp)
9d0088fc:	afa40010 	sw	a0,16(sp)
9d008900:	afa50014 	sw	a1,20(sp)
9d008904:	afa60018 	sw	a2,24(sp)
9d008908:	afa7001c 	sw	a3,28(sp)
9d00890c:	afa80020 	sw	t0,32(sp)
9d008910:	afa90024 	sw	t1,36(sp)
9d008914:	afaa0028 	sw	t2,40(sp)
9d008918:	afab002c 	sw	t3,44(sp)
9d00891c:	afac0030 	sw	t4,48(sp)
9d008920:	afad0034 	sw	t5,52(sp)
9d008924:	afae0038 	sw	t6,56(sp)
9d008928:	afaf003c 	sw	t7,60(sp)
9d00892c:	afb80040 	sw	t8,64(sp)
9d008930:	afb90044 	sw	t9,68(sp)
9d008934:	afbf0048 	sw	ra,72(sp)
9d008938:	00004012 	mflo	t0
9d00893c:	afa8004c 	sw	t0,76(sp)
9d008940:	00004010 	mfhi	t0
9d008944:	afa80050 	sw	t0,80(sp)
9d008948:	3c1a9d01 	lui	k0,0x9d01
9d00894c:	275a8ecc 	addiu	k0,k0,-28980
9d008950:	00000000 	nop
9d008954:	40046800 	mfc0	a0,c0_cause
9d008958:	40056000 	mfc0	a1,c0_status
9d00895c:	0340f809 	jalr	k0
9d008960:	00000000 	nop
9d008964:	8fa80050 	lw	t0,80(sp)
9d008968:	01000011 	mthi	t0
9d00896c:	8fa8004c 	lw	t0,76(sp)
9d008970:	01000013 	mtlo	t0
9d008974:	8fa10004 	lw	at,4(sp)
9d008978:	8fa20008 	lw	v0,8(sp)
9d00897c:	8fa3000c 	lw	v1,12(sp)
9d008980:	8fa40010 	lw	a0,16(sp)
9d008984:	8fa50014 	lw	a1,20(sp)
9d008988:	8fa60018 	lw	a2,24(sp)
9d00898c:	8fa7001c 	lw	a3,28(sp)
9d008990:	8fa80020 	lw	t0,32(sp)
9d008994:	8fa90024 	lw	t1,36(sp)
9d008998:	8faa0028 	lw	t2,40(sp)
9d00899c:	8fab002c 	lw	t3,44(sp)
9d0089a0:	8fac0030 	lw	t4,48(sp)
9d0089a4:	8fad0034 	lw	t5,52(sp)
9d0089a8:	8fae0038 	lw	t6,56(sp)
9d0089ac:	8faf003c 	lw	t7,60(sp)
9d0089b0:	8fb80040 	lw	t8,64(sp)
9d0089b4:	8fb90044 	lw	t9,68(sp)
9d0089b8:	8fbf0048 	lw	ra,72(sp)
9d0089bc:	27bd0058 	addiu	sp,sp,88
9d0089c0:	000000c0 	ehb
9d0089c4:	42000018 	eret

Disassembly of section .text:

9d0089c8 <initSPI>:


// initialize SPI1
void initSPI() {
    // Pin B14 has to be SCK1
    ANSELA = 0; // Turn off analog pins
9d0089c8:	3c02bf88 	lui	v0,0xbf88
9d0089cc:	ac406000 	sw	zero,24576(v0)
    // Make an output pin for CS
    TRISAbits.TRISA0 = 0; //choose A0 as output pin
9d0089d0:	3c02bf88 	lui	v0,0xbf88
9d0089d4:	90436010 	lbu	v1,24592(v0)
9d0089d8:	7c030004 	ins	v1,zero,0x0,0x1
9d0089dc:	a0436010 	sb	v1,24592(v0)
    LATAbits.LATA0 = 1;
9d0089e0:	3c02bf88 	lui	v0,0xbf88
9d0089e4:	90446030 	lbu	a0,24624(v0)
9d0089e8:	24030001 	li	v1,1
9d0089ec:	7c640004 	ins	a0,v1,0x0,0x1
9d0089f0:	a0446030 	sb	a0,24624(v0)
    // Set SDO1
    RPA1Rbits.RPA1R = 0b0011; //chose A1 pin
9d0089f4:	3c02bf81 	lui	v0,0xbf81
9d0089f8:	9044fb04 	lbu	a0,-1276(v0)
9d0089fc:	24050003 	li	a1,3
9d008a00:	7ca41804 	ins	a0,a1,0x0,0x4
9d008a04:	a044fb04 	sb	a0,-1276(v0)
    // Set SDI1
    SDI1Rbits.SDI1R = 0b0001;
9d008a08:	3c02bf81 	lui	v0,0xbf81
9d008a0c:	9044fa84 	lbu	a0,-1404(v0)
9d008a10:	7c641804 	ins	a0,v1,0x0,0x4
9d008a14:	a044fa84 	sb	a0,-1404(v0)

    // setup SPI1
    SPI1CON = 0; // turn off the spi module and reset it
9d008a18:	3c02bf80 	lui	v0,0xbf80
9d008a1c:	ac405800 	sw	zero,22528(v0)
    SPI1BUF; // clear the rx buffer by reading from it
9d008a20:	3c02bf80 	lui	v0,0xbf80
9d008a24:	8c425820 	lw	v0,22560(v0)
    SPI1BRG = 1000; // 1000 for 24kHz, 1 for 12MHz; // baud rate to 10 MHz [SPI1BRG = (48000000/(2*desired))-1]
9d008a28:	3c02bf80 	lui	v0,0xbf80
9d008a2c:	240403e8 	li	a0,1000
9d008a30:	ac445830 	sw	a0,22576(v0)
    SPI1STATbits.SPIROV = 0; // clear the overflow bit
9d008a34:	3c02bf80 	lui	v0,0xbf80
9d008a38:	8c445810 	lw	a0,22544(v0)
9d008a3c:	7c043184 	ins	a0,zero,0x6,0x1
9d008a40:	ac445810 	sw	a0,22544(v0)
    SPI1CONbits.CKE = 1; // data changes when clock goes from hi to lo (since CKP is 0)
9d008a44:	3c02bf80 	lui	v0,0xbf80
9d008a48:	8c445800 	lw	a0,22528(v0)
9d008a4c:	7c644204 	ins	a0,v1,0x8,0x1
9d008a50:	ac445800 	sw	a0,22528(v0)
    SPI1CONbits.MSTEN = 1; // master operation
9d008a54:	8c445800 	lw	a0,22528(v0)
9d008a58:	7c642944 	ins	a0,v1,0x5,0x1
9d008a5c:	ac445800 	sw	a0,22528(v0)
    SPI1CONbits.ON = 1; // turn on spi 
9d008a60:	8c445800 	lw	a0,22528(v0)
9d008a64:	7c647bc4 	ins	a0,v1,0xf,0x1
9d008a68:	ac445800 	sw	a0,22528(v0)
}
9d008a6c:	03e00008 	jr	ra
9d008a70:	00000000 	nop

9d008a74 <spi_io>:


// send a byte via spi and return the response
unsigned char spi_io(unsigned char o) {
  SPI1BUF = o;
9d008a74:	3c02bf80 	lui	v0,0xbf80
9d008a78:	ac445820 	sw	a0,22560(v0)
  while(!SPI1STATbits.SPIRBF) { // wait to receive the byte
9d008a7c:	3c03bf80 	lui	v1,0xbf80
9d008a80:	8c625810 	lw	v0,22544(v1)
9d008a84:	30420001 	andi	v0,v0,0x1
9d008a88:	1040fffd 	beqz	v0,9d008a80 <spi_io+0xc>
9d008a8c:	3c02bf80 	lui	v0,0xbf80
    ;
  }
  return SPI1BUF;
9d008a90:	8c425820 	lw	v0,22560(v0)
9d008a94:	03e00008 	jr	ra
9d008a98:	304200ff 	andi	v0,v0,0xff

Disassembly of section .text.libm:

9d008a9c <exmul>:
9d008a9c:	00a80019 00005812 00005010 00a70019     .....X...P......
9d008aac:	00006812 00006010 016c5821 016c782b     .h...`..!Xl.+xl.
9d008abc:	014f5021 00880019 00007012 00006010     !PO......p...`..
9d008acc:	01cd7021 01cd782b 016c5821 016f5821     !p..+x..!Xl.!Xo.
9d008adc:	116c0002 00000000 016c782b              ..l.....+xl.

9d008ae8 <L4>:
9d008ae8:	014f5021 	addu	t2,t2,t7
9d008aec:	01c0782a 	slt	t7,t6,zero
9d008af0:	01ce7021 	addu	t6,t6,t6
9d008af4:	016f5821 	addu	t3,t3,t7
9d008af8:	016f782b 	sltu	t7,t3,t7
9d008afc:	014f5021 	addu	t2,t2,t7
9d008b00:	0540000c 	bltz	t2,9d008b34 <i4>
9d008b04:	00000000 	nop
9d008b08:	11400013 	beqz	t2,9d008b58 <Bzer>
9d008b0c:	00000000 	nop
9d008b10:	01c0782a 	slt	t7,t6,zero
9d008b14:	01ce7021 	addu	t6,t6,t6
9d008b18:	0160102a 	slt	v0,t3,zero
9d008b1c:	016b5821 	addu	t3,t3,t3
9d008b20:	016f5821 	addu	t3,t3,t7
9d008b24:	00027825 	or	t7,zero,v0
9d008b28:	014a5021 	addu	t2,t2,t2
9d008b2c:	014f5021 	addu	t2,t2,t7
9d008b30:	24c6ffff 	addiu	a2,a2,-1

9d008b34 <i4>:
9d008b34:	00c93021 	addu	a2,a2,t1
9d008b38:	24c6fc02 	addiu	a2,a2,-1022
9d008b3c:	000b2025 	or	a0,zero,t3
9d008b40:	000a2825 	or	a1,zero,t2

9d008b44 <Bret>:
9d008b44:	00041025 	or	v0,zero,a0
9d008b48:	00051825 	or	v1,zero,a1
9d008b4c:	0006c025 	or	t8,zero,a2

9d008b50 <B999>:
9d008b50:	03e00008 	jr	ra
9d008b54:	00000000 	nop

9d008b58 <Bzer>:
9d008b58:	24060000 	li	a2,0
9d008b5c:	00062825 	or	a1,zero,a2
9d008b60:	1000fff8 	b	9d008b44 <Bret>
9d008b64:	00062025 	or	a0,zero,a2
9d008b68:	00000000 	nop

Disassembly of section .text.fptodp:

9d008b6c <__extendsfdf2>:
9d008b6c:	00043dc2 30e700ff 3c018000 00813024     .=.....0...<$0..
9d008b7c:	24e9ffff 2d2100fe 1020000d 00000000     ...$..!-.. .....

9d008b8c <Glab1>:
9d008b8c:	24e70380 	addiu	a3,a3,896
9d008b90:	00044a40 	sll	t1,a0,0x9
9d008b94:	00094b02 	srl	t1,t1,0xc
9d008b98:	00c93025 	or	a2,a2,t1
9d008b9c:	00042f40 	sll	a1,a0,0x1d

9d008ba0 <Gret>:
9d008ba0:	00074d00 	sll	t1,a3,0x14
9d008ba4:	00c93025 	or	a2,a2,t1
9d008ba8:	00051025 	or	v0,zero,a1
9d008bac:	00061825 	or	v1,zero,a2

9d008bb0 <G999>:
9d008bb0:	03e00008 	jr	ra
9d008bb4:	00000000 	nop
9d008bb8:	00000000 	nop

9d008bbc <Gspec>:
9d008bbc:	24050000 	li	a1,0
9d008bc0:	00842021 	addu	a0,a0,a0
9d008bc4:	1080fff6 	beqz	a0,9d008ba0 <Gret>
9d008bc8:	00000000 	nop
9d008bcc:	14e00009 	bnez	a3,9d008bf4 <i42>
9d008bd0:	00000000 	nop

9d008bd4 <b43>:
9d008bd4:	24e7ffff 	addiu	a3,a3,-1
9d008bd8:	00842021 	addu	a0,a0,a0
9d008bdc:	3c010080 	lui	at,0x80
9d008be0:	0081082b 	sltu	at,a0,at
9d008be4:	1420fffb 	bnez	at,9d008bd4 <b43>
9d008be8:	00000000 	nop
9d008bec:	1000ffe7 	b	9d008b8c <Glab1>
9d008bf0:	00000000 	nop

9d008bf4 <i42>:
9d008bf4:	240707ff 	li	a3,2047
9d008bf8:	3c01ff00 	lui	at,0xff00
9d008bfc:	34210001 	ori	at,at,0x1
9d008c00:	0081082b 	sltu	at,a0,at
9d008c04:	1420ffe6 	bnez	at,9d008ba0 <Gret>
9d008c08:	00000000 	nop
9d008c0c:	1000ffe4 	b	9d008ba0 <Gret>
9d008c10:	3c06fff8 	lui	a2,0xfff8
9d008c14:	00000000 	nop

Disassembly of section .text.fpcmplt:

9d008c18 <fpcmplt>:
9d008c18:	2408fffe 	li	t0,-2
9d008c1c:	00043040 	sll	a2,a0,0x1
9d008c20:	00053840 	sll	a3,a1,0x1
9d008c24:	00c74825 	or	t1,a2,a3
9d008c28:	1120001b 	beqz	t1,9d008c98 <fpcmplt+0x80>
9d008c2c:	00000000 	nop
9d008c30:	3c01ff00 	lui	at,0xff00
9d008c34:	34210001 	ori	at,at,0x1
9d008c38:	00c1082b 	sltu	at,a2,at
9d008c3c:	1020001a 	beqz	at,9d008ca8 <fpcmplt+0x90>
9d008c40:	00000000 	nop
9d008c44:	3c01ff00 	lui	at,0xff00
9d008c48:	34210001 	ori	at,at,0x1
9d008c4c:	00e1082b 	sltu	at,a3,at
9d008c50:	10200015 	beqz	at,9d008ca8 <fpcmplt+0x90>
9d008c54:	00000000 	nop
9d008c58:	04810002 	bgez	a0,9d008c64 <fpcmplt+0x4c>
9d008c5c:	00063042 	srl	a2,a2,0x1
9d008c60:	00063023 	negu	a2,a2
9d008c64:	04a10002 	bgez	a1,9d008c70 <fpcmplt+0x58>
9d008c68:	00073842 	srl	a3,a3,0x1
9d008c6c:	00073823 	negu	a3,a3
9d008c70:	00c7082a 	slt	at,a2,a3
9d008c74:	10200003 	beqz	at,9d008c84 <fpcmplt+0x6c>
9d008c78:	00000000 	nop
9d008c7c:	10000007 	b	9d008c9c <fpcmplt+0x84>
9d008c80:	2402ffff 	li	v0,-1
9d008c84:	00e6082a 	slt	at,a3,a2
9d008c88:	10200003 	beqz	at,9d008c98 <fpcmplt+0x80>
9d008c8c:	00000000 	nop
9d008c90:	10000002 	b	9d008c9c <fpcmplt+0x84>
9d008c94:	24020001 	li	v0,1
9d008c98:	24020000 	li	v0,0
9d008c9c:	03e00008 	jr	ra
9d008ca0:	00000000 	nop
9d008ca4:	00000000 	nop
9d008ca8:	1000fffc 	b	9d008c9c <fpcmplt+0x84>
9d008cac:	34020001 	li	v0,0x1
9d008cb0:	00000000 	nop

Disassembly of section .text.dinit.startup:

9d008cb4 <__pic32_data_init_impl>:
9d008cb4:	3c089d01 	lui	t0,0x9d01
9d008cb8:	25088d34 	addiu	t0,t0,-29388
9d008cbc:	1100001b 	beqz	t0,9d008d2c <_dinit_end+0x18>
9d008cc0:	00000000 	nop
9d008cc4:	8d090000 	lw	t1,0(t0)
9d008cc8:	11200018 	beqz	t1,9d008d2c <_dinit_end+0x18>
9d008ccc:	25080004 	addiu	t0,t0,4
9d008cd0:	8d0a0000 	lw	t2,0(t0)
9d008cd4:	25080004 	addiu	t0,t0,4
9d008cd8:	8d0b0000 	lw	t3,0(t0)
9d008cdc:	11600009 	beqz	t3,9d008d04 <_dinit_clear>
9d008ce0:	25080004 	addiu	t0,t0,4

9d008ce4 <_dinit_copy>:
9d008ce4:	910c0000 	lbu	t4,0(t0)
9d008ce8:	254affff 	addiu	t2,t2,-1
9d008cec:	25080001 	addiu	t0,t0,1
9d008cf0:	a12c0000 	sb	t4,0(t1)
9d008cf4:	1540fffb 	bnez	t2,9d008ce4 <_dinit_copy>
9d008cf8:	25290001 	addiu	t1,t1,1
9d008cfc:	10000005 	b	9d008d14 <_dinit_end>
9d008d00:	00000000 	nop

9d008d04 <_dinit_clear>:
9d008d04:	a1200000 	sb	zero,0(t1)
9d008d08:	254affff 	addiu	t2,t2,-1
9d008d0c:	1540fffd 	bnez	t2,9d008d04 <_dinit_clear>
9d008d10:	25290001 	addiu	t1,t1,1

9d008d14 <_dinit_end>:
9d008d14:	25080003 	addiu	t0,t0,3
9d008d18:	240afffc 	li	t2,-4
9d008d1c:	01484024 	and	t0,t2,t0
9d008d20:	8d090000 	lw	t1,0(t0)
9d008d24:	1520ffe7 	bnez	t1,9d008cc4 <__pic32_data_init_impl+0x10>
9d008d28:	00000000 	nop
9d008d2c:	03e00008 	jr	ra
9d008d30:	00000000 	nop

Disassembly of section .dinit:

9d008d34 <.dinit>:
9d008d34:	a0000000 	sb	zero,0(zero)
9d008d38:	00000070 	tge	zero,zero,0x1
9d008d3c:	00000001 	movf	zero,zero,$fcc0
9d008d40:	57bfb4b5 	bnel	sp,ra,9cff6018 <_bmxdudba_address+0x9cfe6018>
9d008d44:	00000000 	nop
9d008d48:	3386658e 	andi	a2,gp,0x658e
9d008d4c:	ffffffca 	sdc3	$31,-54(ra)
9d008d50:	e3d5b754 	sc	s5,-18604(s8)
9d008d54:	0000171d 	0x171d
9d008d58:	f9636aa7 	sdc2	$3,27303(t3)
9d008d5c:	fff97f97 	sdc3	$25,32663(ra)
9d008d60:	11171e6d 	beq	t0,s7,9d010718 <_on_bootstrap+0x7720>
9d008d64:	01111111 	0x1111111
9d008d68:	aaaa28cc 	swl	t2,10444(s5)
9d008d6c:	eaaaaaaa 	swc2	$10,-21846(s5)
9d008d70:	00000557 	0x557
9d008d74:	80000000 	lb	zero,0(zero)
9d008d78:	6ede28b6 	0x6ede28b6
9d008d7c:	00000004 	sllv	zero,zero,zero
9d008d80:	404970f9 	0x404970f9
9d008d84:	fffffdb0 	sdc3	$31,-592(ra)
9d008d88:	fcc66699 	sdc3	$6,26265(a2)
9d008d8c:	0000d00c 	syscall	0x340
9d008d90:	d34d60fd 	0xd34d60fd
9d008d94:	ffd27d27 	sdc3	$18,32039(s8)
9d008d98:	55415881 	bnel	t2,at,9d01efa0 <_on_bootstrap+0x15fa8>
9d008d9c:	05555555 	0x5555555
9d008da0:	0000b8bf 	0xb8bf
9d008da4:	c0000000 	ll	zero,0(zero)
9d008da8:	0000013d 	0x13d
9d008dac:	80000000 	lb	zero,0(zero)
9d008db0:	00000000 	nop

Disassembly of section .text.fptoul:

9d008db4 <__fixunssfsi>:
9d008db4:	00042a00 3c018000 00a12825 00043dc2     .*.....<%(...=..
9d008dc4:	30e700ff 2406009e 00c73023 04c0000d     ...0...$#0......
9d008dd4:	00000000 28c10020 14200003 00000000     .... ..(.. .....
9d008de4:	10000005 24020000                       .......$

9d008dec <i45>:
9d008dec:	04810002 	bgez	a0,9d008df8 <i46>
9d008df0:	00c52806 	srlv	a1,a1,a2
9d008df4:	00052823 	negu	a1,a1

9d008df8 <i46>:
9d008df8:	00051025 	or	v0,zero,a1

9d008dfc <I999>:
9d008dfc:	03e00008 	jr	ra
9d008e00:	00000000 	nop
9d008e04:	00000000 	nop

9d008e08 <Ispec>:
9d008e08:	3c017f80 	lui	at,0x7f80
9d008e0c:	34210001 	ori	at,at,0x1
9d008e10:	0081082b 	sltu	at,a0,at
9d008e14:	14200003 	bnez	at,9d008e24 <i47>
9d008e18:	00000000 	nop
9d008e1c:	1000fff7 	b	9d008dfc <I999>
9d008e20:	3c028000 	lui	v0,0x8000

9d008e24 <i47>:
9d008e24:	1000fff5 	b	9d008dfc <I999>
9d008e28:	2402ffff 	li	v0,-1
9d008e2c:	00000000 	nop

Disassembly of section .text.main_entry:

9d008e30 <_main_entry>:
9d008e30:	3c040000 	lui	a0,0x0
9d008e34:	27bdffe8 	addiu	sp,sp,-24
9d008e38:	24840000 	addiu	a0,a0,0
9d008e3c:	10800003 	beqz	a0,9d008e4c <_main_entry+0x1c>
9d008e40:	afbf0014 	sw	ra,20(sp)
9d008e44:	0080f809 	jalr	a0
9d008e48:	00000000 	nop
9d008e4c:	30840000 	andi	a0,a0,0x0
9d008e50:	30a50000 	andi	a1,a1,0x0
9d008e54:	3c089d00 	lui	t0,0x9d00
9d008e58:	25087d6c 	addiu	t0,t0,32108
9d008e5c:	0100f809 	jalr	t0
9d008e60:	00000000 	nop

9d008e64 <__crt0_exit>:
9d008e64:	3c020000 24420000 10400003 00000000     ...<..B$..@.....
9d008e74:	0040f809 00000000 1000fff9 00000000     ..@.............

Disassembly of section .text._bootstrap_exception_handler:

9d008e84 <_bootstrap_exception_handler>:
9d008e84:	3c020000 	lui	v0,0x0
9d008e88:	24420000 	addiu	v0,v0,0
9d008e8c:	10400005 	beqz	v0,9d008ea4 <_bootstrap_exception_handler+0x20>
9d008e90:	3c020000 	lui	v0,0x0
9d008e94:	24420000 	addiu	v0,v0,0
9d008e98:	10400003 	beqz	v0,9d008ea8 <_bootstrap_exception_handler+0x24>
9d008e9c:	3c029d01 	lui	v0,0x9d01
9d008ea0:	7000003f 	sdbbp
9d008ea4:	3c029d01 	lui	v0,0x9d01
9d008ea8:	24428f5c 	addiu	v0,v0,-28836
9d008eac:	10400005 	beqz	v0,9d008ec4 <_bootstrap_exception_handler+0x40>
9d008eb0:	00000000 	nop
9d008eb4:	27bdffe8 	addiu	sp,sp,-24
9d008eb8:	afbf0014 	sw	ra,20(sp)
9d008ebc:	0040f809 	jalr	v0
9d008ec0:	00000000 	nop
9d008ec4:	1000ffff 	b	9d008ec4 <_bootstrap_exception_handler+0x40>
9d008ec8:	00000000 	nop

Disassembly of section .text._general_exception_handler:

9d008ecc <_general_exception_handler>:
9d008ecc:	3c020000 	lui	v0,0x0
9d008ed0:	24420000 	addiu	v0,v0,0
9d008ed4:	10400005 	beqz	v0,9d008eec <_general_exception_handler+0x20>
9d008ed8:	3c020000 	lui	v0,0x0
9d008edc:	24420000 	addiu	v0,v0,0
9d008ee0:	10400003 	beqz	v0,9d008ef0 <_general_exception_handler+0x24>
9d008ee4:	3c029d01 	lui	v0,0x9d01
9d008ee8:	7000003f 	sdbbp
9d008eec:	3c029d01 	lui	v0,0x9d01
9d008ef0:	24428f5c 	addiu	v0,v0,-28836
9d008ef4:	10400005 	beqz	v0,9d008f0c <_general_exception_handler+0x40>
9d008ef8:	00000000 	nop
9d008efc:	27bdffe8 	addiu	sp,sp,-24
9d008f00:	afbf0014 	sw	ra,20(sp)
9d008f04:	0040f809 	jalr	v0
9d008f08:	00000000 	nop
9d008f0c:	1000ffff 	b	9d008f0c <_general_exception_handler+0x40>
9d008f10:	00000000 	nop

Disassembly of section .vector_default:

9d008f14 <_DefaultInterrupt>:
9d008f14:	3c020000 	lui	v0,0x0
9d008f18:	24420000 	addiu	v0,v0,0
9d008f1c:	10400007 	beqz	v0,9d008f3c <_DefaultInterrupt+0x28>
9d008f20:	3c020000 	lui	v0,0x0
9d008f24:	24420000 	addiu	v0,v0,0
9d008f28:	50400005 	beqzl	v0,9d008f40 <_DefaultInterrupt+0x2c>
9d008f2c:	3c029d01 	lui	v0,0x9d01
9d008f30:	7000003f 	sdbbp
9d008f34:	03e00008 	jr	ra
9d008f38:	00000000 	nop
9d008f3c:	3c029d01 	lui	v0,0x9d01
9d008f40:	24428f5c 	addiu	v0,v0,-28836
9d008f44:	10400003 	beqz	v0,9d008f54 <_DefaultInterrupt+0x40>
9d008f48:	00000000 	nop
9d008f4c:	0040f809 	jalr	v0
9d008f50:	00000000 	nop
9d008f54:	03e00008 	jr	ra
9d008f58:	00000000 	nop

Disassembly of section .text:

9d008f5c <__pic32_software_reset>:
9d008f5c:	41606000 	di
9d008f60:	000000c0 	ehb
9d008f64:	3c03aa99 	lui	v1,0xaa99
9d008f68:	3c02bf81 	lui	v0,0xbf81
9d008f6c:	24636655 	addiu	v1,v1,26197
9d008f70:	ac40f230 	sw	zero,-3536(v0)
9d008f74:	ac43f230 	sw	v1,-3536(v0)
9d008f78:	3c035566 	lui	v1,0x5566
9d008f7c:	346399aa 	ori	v1,v1,0x99aa
9d008f80:	ac43f230 	sw	v1,-3536(v0)
9d008f84:	3c02bf81 	lui	v0,0xbf81
9d008f88:	24030001 	li	v1,1
9d008f8c:	ac43f618 	sw	v1,-2536(v0)
9d008f90:	3c02bf81 	lui	v0,0xbf81
9d008f94:	8c42f610 	lw	v0,-2544(v0)
9d008f98:	0b4023d9 	j	9d008f64 <__pic32_software_reset+0x8>
9d008f9c:	00000000 	nop

Disassembly of section .text.dinit.startup:

9d008fa0 <__pic32_data_init>:
9d008fa0:	03e01825 	move	v1,ra
9d008fa4:	3c089d01 	lui	t0,0x9d01
9d008fa8:	25088cb4 	addiu	t0,t0,-29516
9d008fac:	0100f809 	jalr	t0
9d008fb0:	00000000 	nop
9d008fb4:	0060f825 	move	ra,v1
9d008fb8:	03e00008 	jr	ra
9d008fbc:	00000000 	nop

Disassembly of section .text:

9d008fd8 <_nmi_handler>:
9d008fd8:	401a6000 	mfc0	k0,c0_status
9d008fdc:	3c1bffbf 	lui	k1,0xffbf
9d008fe0:	377bffff 	ori	k1,k1,0xffff
9d008fe4:	035bd024 	and	k0,k0,k1
9d008fe8:	409a6000 	mtc0	k0,c0_status
9d008fec:	42000018 	eret

Disassembly of section .text._on_reset:

9d008ff0 <_on_reset>:
9d008ff0:	03e00008 	jr	ra
9d008ff4:	00000000 	nop

Disassembly of section .text._on_bootstrap:

9d008ff8 <_on_bootstrap>:
9d008ff8:	03e00008 	jr	ra
9d008ffc:	00000000 	nop
