
out.elf:     file format elf32-tradlittlemips


Disassembly of section .reset:

bd007000 <_reset>:
bd007000:	0f401c02 	jal	bd007008 <_startup>
bd007004:	00000000 	nop

bd007008 <_startup>:
bd007008:	401a6000 	mfc0	k0,c0_status
bd00700c:	7f5a04c0 	ext	k0,k0,0x13,0x1
bd007010:	13400005 	beqz	k0,bd007028 <_no_nmi>
bd007014:	00000000 	nop
bd007018:	3c1a9d00 	lui	k0,0x9d00
bd00701c:	275a7c68 	addiu	k0,k0,31848
bd007020:	03400008 	jr	k0
bd007024:	00000000 	nop

bd007028 <_no_nmi>:
bd007028:	3c1da001 	lui	sp,0xa001
bd00702c:	27bdfff8 	addiu	sp,sp,-8
bd007030:	3c1ca000 	lui	gp,0xa000
bd007034:	279c7ff0 	addiu	gp,gp,32752
bd007038:	3c089d00 	lui	t0,0x9d00
bd00703c:	25087c90 	addiu	t0,t0,31888
bd007040:	0100f809 	jalr	t0
bd007044:	00000000 	nop

bd007048 <_start_bss_init>:
bd007048:	3c08a000 	lui	t0,0xa000
bd00704c:	25080000 	addiu	t0,t0,0
bd007050:	3c09a000 	lui	t1,0xa000
bd007054:	25290000 	addiu	t1,t1,0
bd007058:	10000003 	b	bd007068 <_bss_check>
bd00705c:	00000000 	nop

bd007060 <_bss_init>:
bd007060:	ad000000 	sw	zero,0(t0)
bd007064:	25080004 	addiu	t0,t0,4

bd007068 <_bss_check>:
bd007068:	0109082b 	sltu	at,t0,t1
bd00706c:	1420fffc 	bnez	at,bd007060 <_bss_init>
bd007070:	00000000 	nop
bd007074:	3c089d00 	lui	t0,0x9d00
bd007078:	25087c30 	addiu	t0,t0,31792
bd00707c:	0100f809 	jalr	t0
bd007080:	00000000 	nop
bd007084:	3c090000 	lui	t1,0x0
bd007088:	25290000 	addiu	t1,t1,0
bd00708c:	11200010 	beqz	t1,bd0070d0 <_ramfunc_done>
bd007090:	00000000 	nop
bd007094:	3c090001 	lui	t1,0x1
bd007098:	25290000 	addiu	t1,t1,0
bd00709c:	3c0abf88 	lui	t2,0xbf88
bd0070a0:	254a2010 	addiu	t2,t2,8208
bd0070a4:	ad490000 	sw	t1,0(t2)
bd0070a8:	3c090001 	lui	t1,0x1
bd0070ac:	25290000 	addiu	t1,t1,0
bd0070b0:	3c0abf88 	lui	t2,0xbf88
bd0070b4:	254a2020 	addiu	t2,t2,8224
bd0070b8:	ad490000 	sw	t1,0(t2)
bd0070bc:	3c090001 	lui	t1,0x1
bd0070c0:	25290000 	addiu	t1,t1,0
bd0070c4:	3c0abf88 	lui	t2,0xbf88
bd0070c8:	254a2030 	addiu	t2,t2,8240
bd0070cc:	ad490000 	sw	t1,0(t2)

bd0070d0 <_ramfunc_done>:
bd0070d0:	40804800 	mtc0	zero,c0_count
bd0070d4:	240affff 	li	t2,-1
bd0070d8:	408a5800 	mtc0	t2,c0_compare
bd0070dc:	3c080040 	lui	t0,0x40
bd0070e0:	400a6000 	mfc0	t2,c0_status
bd0070e4:	010a5025 	or	t2,t0,t2
bd0070e8:	408a6000 	mtc0	t2,c0_status
bd0070ec:	3c099d00 	lui	t1,0x9d00
bd0070f0:	25296000 	addiu	t1,t1,24576
bd0070f4:	000000c0 	ehb
bd0070f8:	40897801 	mtc0	t1,c0_ebase
bd0070fc:	3c090000 	lui	t1,0x0
bd007100:	25290001 	addiu	t1,t1,1
bd007104:	240a0000 	li	t2,0
bd007108:	7d2a4944 	ins	t2,t1,0x5,0x5
bd00710c:	408a6001 	mtc0	t2,c0_intctl
bd007110:	3c090080 	lui	t1,0x80
bd007114:	40896800 	mtc0	t1,c0_cause
bd007118:	40088000 	mfc0	t0,c0_config
bd00711c:	7d090580 	ext	t1,t0,0x16,0x1
bd007120:	00094c40 	sll	t1,t1,0x11
bd007124:	40086000 	mfc0	t0,c0_status
bd007128:	3c010058 	lui	at,0x58
bd00712c:	01014024 	and	t0,t0,at
bd007130:	01284025 	or	t0,t1,t0
bd007134:	40886000 	mtc0	t0,c0_status
bd007138:	000000c0 	ehb
bd00713c:	3c089d00 	lui	t0,0x9d00
bd007140:	25087c98 	addiu	t0,t0,31896
bd007144:	0100f809 	jalr	t0
bd007148:	00000000 	nop
bd00714c:	40086000 	mfc0	t0,c0_status
bd007150:	3c01ffbf 	lui	at,0xffbf
bd007154:	3421ffff 	ori	at,at,0xffff
bd007158:	01014024 	and	t0,t0,at
bd00715c:	40886000 	mtc0	t0,c0_status
bd007160:	30840000 	andi	a0,a0,0x0
bd007164:	30a50000 	andi	a1,a1,0x0
bd007168:	3c089d00 	lui	t0,0x9d00
bd00716c:	25087ac0 	addiu	t0,t0,31424
bd007170:	01000008 	jr	t0
bd007174:	00000000 	nop

Disassembly of section .bev_excpt:

bfc07380 <_bev_exception>:
bfc07380:	3c1a9d00 	lui	k0,0x9d00
bfc07384:	275a7b14 	addiu	k0,k0,31508
bfc07388:	03400008 	jr	k0
bfc0738c:	00000000 	nop

Disassembly of section .app_excpt:

9d006180 <_gen_exception>:
9d006180:	3c1a9d00 	lui	k0,0x9d00
9d006184:	275a7964 	addiu	k0,k0,31076
9d006188:	03400008 	jr	k0
9d00618c:	00000000 	nop

Disassembly of section .vector_0:

9d006200 <__vector_dispatch_0>:
9d006200:	0b401ee9 	j	9d007ba4 <_DefaultInterrupt>
9d006204:	00000000 	nop

Disassembly of section .vector_1:

9d006220 <__vector_dispatch_1>:
9d006220:	0b401ee9 	j	9d007ba4 <_DefaultInterrupt>
9d006224:	00000000 	nop

Disassembly of section .vector_2:

9d006240 <__vector_dispatch_2>:
9d006240:	0b401ee9 	j	9d007ba4 <_DefaultInterrupt>
9d006244:	00000000 	nop

Disassembly of section .vector_3:

9d006260 <__vector_dispatch_3>:
9d006260:	0b401ee9 	j	9d007ba4 <_DefaultInterrupt>
9d006264:	00000000 	nop

Disassembly of section .vector_4:

9d006280 <__vector_dispatch_4>:
9d006280:	0b401ee9 	j	9d007ba4 <_DefaultInterrupt>
9d006284:	00000000 	nop

Disassembly of section .vector_5:

9d0062a0 <__vector_dispatch_5>:
9d0062a0:	0b401ee9 	j	9d007ba4 <_DefaultInterrupt>
9d0062a4:	00000000 	nop

Disassembly of section .vector_6:

9d0062c0 <__vector_dispatch_6>:
9d0062c0:	0b401ee9 	j	9d007ba4 <_DefaultInterrupt>
9d0062c4:	00000000 	nop

Disassembly of section .vector_7:

9d0062e0 <__vector_dispatch_7>:
9d0062e0:	0b401ee9 	j	9d007ba4 <_DefaultInterrupt>
9d0062e4:	00000000 	nop

Disassembly of section .vector_8:

9d006300 <__vector_dispatch_8>:
9d006300:	0b401ee9 	j	9d007ba4 <_DefaultInterrupt>
9d006304:	00000000 	nop

Disassembly of section .vector_9:

9d006320 <__vector_dispatch_9>:
9d006320:	0b401ee9 	j	9d007ba4 <_DefaultInterrupt>
9d006324:	00000000 	nop

Disassembly of section .vector_10:

9d006340 <__vector_dispatch_10>:
9d006340:	0b401ee9 	j	9d007ba4 <_DefaultInterrupt>
9d006344:	00000000 	nop

Disassembly of section .vector_11:

9d006360 <__vector_dispatch_11>:
9d006360:	0b401ee9 	j	9d007ba4 <_DefaultInterrupt>
9d006364:	00000000 	nop

Disassembly of section .vector_12:

9d006380 <__vector_dispatch_12>:
9d006380:	0b401ee9 	j	9d007ba4 <_DefaultInterrupt>
9d006384:	00000000 	nop

Disassembly of section .vector_13:

9d0063a0 <__vector_dispatch_13>:
9d0063a0:	0b401ee9 	j	9d007ba4 <_DefaultInterrupt>
9d0063a4:	00000000 	nop

Disassembly of section .vector_14:

9d0063c0 <__vector_dispatch_14>:
9d0063c0:	0b401ee9 	j	9d007ba4 <_DefaultInterrupt>
9d0063c4:	00000000 	nop

Disassembly of section .vector_15:

9d0063e0 <__vector_dispatch_15>:
9d0063e0:	0b401ee9 	j	9d007ba4 <_DefaultInterrupt>
9d0063e4:	00000000 	nop

Disassembly of section .vector_16:

9d006400 <__vector_dispatch_16>:
9d006400:	0b401ee9 	j	9d007ba4 <_DefaultInterrupt>
9d006404:	00000000 	nop

Disassembly of section .vector_17:

9d006420 <__vector_dispatch_17>:
9d006420:	0b401ee9 	j	9d007ba4 <_DefaultInterrupt>
9d006424:	00000000 	nop

Disassembly of section .vector_18:

9d006440 <__vector_dispatch_18>:
9d006440:	0b401ee9 	j	9d007ba4 <_DefaultInterrupt>
9d006444:	00000000 	nop

Disassembly of section .vector_19:

9d006460 <__vector_dispatch_19>:
9d006460:	0b401ee9 	j	9d007ba4 <_DefaultInterrupt>
9d006464:	00000000 	nop

Disassembly of section .vector_20:

9d006480 <__vector_dispatch_20>:
9d006480:	0b401ee9 	j	9d007ba4 <_DefaultInterrupt>
9d006484:	00000000 	nop

Disassembly of section .vector_21:

9d0064a0 <__vector_dispatch_21>:
9d0064a0:	0b401ee9 	j	9d007ba4 <_DefaultInterrupt>
9d0064a4:	00000000 	nop

Disassembly of section .vector_22:

9d0064c0 <__vector_dispatch_22>:
9d0064c0:	0b401ee9 	j	9d007ba4 <_DefaultInterrupt>
9d0064c4:	00000000 	nop

Disassembly of section .vector_23:

9d0064e0 <__vector_dispatch_23>:
9d0064e0:	0b401ee9 	j	9d007ba4 <_DefaultInterrupt>
9d0064e4:	00000000 	nop

Disassembly of section .vector_24:

9d006500 <__vector_dispatch_24>:
9d006500:	0b401ee9 	j	9d007ba4 <_DefaultInterrupt>
9d006504:	00000000 	nop

Disassembly of section .vector_25:

9d006520 <__vector_dispatch_25>:
9d006520:	0b401ee9 	j	9d007ba4 <_DefaultInterrupt>
9d006524:	00000000 	nop

Disassembly of section .vector_26:

9d006540 <__vector_dispatch_26>:
9d006540:	0b401ee9 	j	9d007ba4 <_DefaultInterrupt>
9d006544:	00000000 	nop

Disassembly of section .vector_27:

9d006560 <__vector_dispatch_27>:
9d006560:	0b401ee9 	j	9d007ba4 <_DefaultInterrupt>
9d006564:	00000000 	nop

Disassembly of section .vector_28:

9d006580 <__vector_dispatch_28>:
9d006580:	0b401ee9 	j	9d007ba4 <_DefaultInterrupt>
9d006584:	00000000 	nop

Disassembly of section .vector_29:

9d0065a0 <__vector_dispatch_29>:
9d0065a0:	0b401ee9 	j	9d007ba4 <_DefaultInterrupt>
9d0065a4:	00000000 	nop

Disassembly of section .vector_30:

9d0065c0 <__vector_dispatch_30>:
9d0065c0:	0b401ee9 	j	9d007ba4 <_DefaultInterrupt>
9d0065c4:	00000000 	nop

Disassembly of section .vector_31:

9d0065e0 <__vector_dispatch_31>:
9d0065e0:	0b401ee9 	j	9d007ba4 <_DefaultInterrupt>
9d0065e4:	00000000 	nop

Disassembly of section .vector_32:

9d006600 <__vector_dispatch_32>:
9d006600:	0b401ee9 	j	9d007ba4 <_DefaultInterrupt>
9d006604:	00000000 	nop

Disassembly of section .vector_33:

9d006620 <__vector_dispatch_33>:
9d006620:	0b401ee9 	j	9d007ba4 <_DefaultInterrupt>
9d006624:	00000000 	nop

Disassembly of section .vector_34:

9d006640 <__vector_dispatch_34>:
9d006640:	0b401ee9 	j	9d007ba4 <_DefaultInterrupt>
9d006644:	00000000 	nop

Disassembly of section .vector_35:

9d006660 <__vector_dispatch_35>:
9d006660:	0b401ee9 	j	9d007ba4 <_DefaultInterrupt>
9d006664:	00000000 	nop

Disassembly of section .vector_36:

9d006680 <__vector_dispatch_36>:
9d006680:	0b401ee9 	j	9d007ba4 <_DefaultInterrupt>
9d006684:	00000000 	nop

Disassembly of section .vector_37:

9d0066a0 <__vector_dispatch_37>:
9d0066a0:	0b401ee9 	j	9d007ba4 <_DefaultInterrupt>
9d0066a4:	00000000 	nop

Disassembly of section .vector_38:

9d0066c0 <__vector_dispatch_38>:
9d0066c0:	0b401ee9 	j	9d007ba4 <_DefaultInterrupt>
9d0066c4:	00000000 	nop

Disassembly of section .vector_39:

9d0066e0 <__vector_dispatch_39>:
9d0066e0:	0b401ee9 	j	9d007ba4 <_DefaultInterrupt>
9d0066e4:	00000000 	nop

Disassembly of section .vector_40:

9d006700 <__vector_dispatch_40>:
9d006700:	0b401ee9 	j	9d007ba4 <_DefaultInterrupt>
9d006704:	00000000 	nop

Disassembly of section .vector_41:

9d006720 <__vector_dispatch_41>:
9d006720:	0b401ee9 	j	9d007ba4 <_DefaultInterrupt>
9d006724:	00000000 	nop

Disassembly of section .vector_42:

9d006740 <__vector_dispatch_42>:
9d006740:	0b401ee9 	j	9d007ba4 <_DefaultInterrupt>
9d006744:	00000000 	nop

Disassembly of section .vector_43:

9d006760 <__vector_dispatch_43>:
9d006760:	0b401ee9 	j	9d007ba4 <_DefaultInterrupt>
9d006764:	00000000 	nop

Disassembly of section ._debug_exception:

bfc00480 <__DbgExecReturn>:
bfc00480:	409bf800 	mtc0	k1,c0_desave
bfc00484:	000000c0 	ehb
bfc00488:	3c1b9d00 	lui	k1,0x9d00
bfc0048c:	277b7bec 	addiu	k1,k1,31724
bfc00490:	13600002 	beqz	k1,bfc0049c <__DbgExecReturn+0x1c>
bfc00494:	00000000 	nop
bfc00498:	409bc000 	mtc0	k1,c0_depc
bfc0049c:	401bf800 	mfc0	k1,c0_desave
bfc004a0:	000000c0 	ehb
bfc004a4:	4200001f 	deret
bfc004a8:	00000000 	nop

Disassembly of section .text:

9d007490 <NU32DIP_Startup>:
#include "nu32dip.h"

void NU32DIP_Startup() {
9d007490:	27bdfff8 	addiu	sp,sp,-8
9d007494:	afbf0004 	sw	ra,4(sp)
    __builtin_disable_interrupts(); // disable interrupts while initializing things
9d007498:	41626000 	di	v0
9d00749c:	000000c0 	ehb

    // set the CP0 CONFIG register to indicate that kseg0 is cacheable (0x3)
    __builtin_mtc0(_CP0_CONFIG, _CP0_CONFIG_SELECT, 0xa4210583);
9d0074a0:	3c02a421 	lui	v0,0xa421
9d0074a4:	24420583 	addiu	v0,v0,1411
9d0074a8:	40828000 	mtc0	v0,c0_config
9d0074ac:	000000c0 	ehb

    // 0 data RAM access wait states
    BMXCONbits.BMXWSDRM = 0x0;
9d0074b0:	3c02bf88 	lui	v0,0xbf88
9d0074b4:	8c432000 	lw	v1,8192(v0)
9d0074b8:	7c033184 	ins	v1,zero,0x6,0x1
9d0074bc:	ac432000 	sw	v1,8192(v0)

    // enable multi vector interrupts
    INTCONbits.MVEC = 0x1;
9d0074c0:	3c02bf88 	lui	v0,0xbf88
9d0074c4:	8c441000 	lw	a0,4096(v0)
9d0074c8:	24030001 	li	v1,1
9d0074cc:	7c646304 	ins	a0,v1,0xc,0x1
9d0074d0:	ac441000 	sw	a0,4096(v0)

    // disable JTAG to get pins back
    DDPCONbits.JTAGEN = 0;
9d0074d4:	3c02bf81 	lui	v0,0xbf81
9d0074d8:	9444f200 	lhu	a0,-3584(v0)
9d0074dc:	7c0418c4 	ins	a0,zero,0x3,0x1
9d0074e0:	a444f200 	sh	a0,-3584(v0)

    // do your TRIS and LAT commands here
    TRISBCLR = 0b110000; // B4 and B5 LEDs
9d0074e4:	3c02bf88 	lui	v0,0xbf88
9d0074e8:	24040030 	li	a0,48
9d0074ec:	ac446114 	sw	a0,24852(v0)
    TRISASET = 0b010000; // A4 user button
9d0074f0:	3c02bf88 	lui	v0,0xbf88
9d0074f4:	24040010 	li	a0,16
9d0074f8:	ac446018 	sw	a0,24600(v0)
    //NU32_LED1 = 1; // LED1 is off
    NU32DIP_YELLOW = 1;
9d0074fc:	3c02bf88 	lui	v0,0xbf88
9d007500:	94446130 	lhu	a0,24880(v0)
9d007504:	7c642944 	ins	a0,v1,0x5,0x1
9d007508:	a4446130 	sh	a0,24880(v0)
    //NU32_LED2 = 0; // LED2 is on
    NU32DIP_GREEN = 0;
9d00750c:	94446130 	lhu	a0,24880(v0)
9d007510:	7c042104 	ins	a0,zero,0x4,0x1
9d007514:	a4446130 	sh	a0,24880(v0)

    //UART1 pins
    U1RXRbits.U1RXR = 0b0000; // Set A2 to U1RX
9d007518:	3c02bf81 	lui	v0,0xbf81
9d00751c:	9044fa50 	lbu	a0,-1456(v0)
9d007520:	7c041804 	ins	a0,zero,0x0,0x4
9d007524:	a044fa50 	sb	a0,-1456(v0)
    RPB3Rbits.RPB3R = 0b0001; // Set B3 to U1TX
9d007528:	3c02bf81 	lui	v0,0xbf81
9d00752c:	9044fb38 	lbu	a0,-1224(v0)
9d007530:	7c641804 	ins	a0,v1,0x0,0x4
9d007534:	a044fb38 	sb	a0,-1224(v0)

    // turn on UART1 without an interrupt
    U1MODEbits.BRGH = 0; // set baud to NU32_DESIRED_BAUD
9d007538:	3c02bf80 	lui	v0,0xbf80
9d00753c:	94446000 	lhu	a0,24576(v0)
9d007540:	7c0418c4 	ins	a0,zero,0x3,0x1
9d007544:	a4446000 	sh	a0,24576(v0)
    U1BRG = ((NU32DIP_SYS_FREQ / NU32DIP_DESIRED_BAUD) / 16) - 1;
9d007548:	3c04bf80 	lui	a0,0xbf80
9d00754c:	2405000c 	li	a1,12
9d007550:	ac856040 	sw	a1,24640(a0)

    // 8 bit, no parity bit, and 1 stop bit (8N1 setup)
    U1MODEbits.PDSEL = 0;
9d007554:	94446000 	lhu	a0,24576(v0)
9d007558:	7c041044 	ins	a0,zero,0x1,0x2
9d00755c:	a4446000 	sh	a0,24576(v0)
    U1MODEbits.STSEL = 0;
9d007560:	94446000 	lhu	a0,24576(v0)
9d007564:	7c040004 	ins	a0,zero,0x0,0x1
9d007568:	a4446000 	sh	a0,24576(v0)

    // configure TX & RX pins as output & input pins
    U1STAbits.UTXEN = 1;
9d00756c:	3c04bf80 	lui	a0,0xbf80
9d007570:	8c856010 	lw	a1,24592(a0)
9d007574:	7c655284 	ins	a1,v1,0xa,0x1
9d007578:	ac856010 	sw	a1,24592(a0)
    U1STAbits.URXEN = 1;
9d00757c:	8c856010 	lw	a1,24592(a0)
9d007580:	7c656304 	ins	a1,v1,0xc,0x1
9d007584:	ac856010 	sw	a1,24592(a0)
    // configure without hardware flow control
    U1MODEbits.UEN = 0;
9d007588:	94446000 	lhu	a0,24576(v0)
9d00758c:	7c044a04 	ins	a0,zero,0x8,0x2
9d007590:	a4446000 	sh	a0,24576(v0)

    // enable the uart
    U1MODEbits.ON = 1;
9d007594:	94446000 	lhu	a0,24576(v0)
9d007598:	7c647bc4 	ins	a0,v1,0xf,0x1
9d00759c:	a4446000 	sh	a0,24576(v0)

    __builtin_enable_interrupts();
9d0075a0:	41626020 	ei	v0
}
9d0075a4:	8fbf0004 	lw	ra,4(sp)
9d0075a8:	03e00008 	jr	ra
9d0075ac:	27bd0008 	addiu	sp,sp,8

9d0075b0 <NU32DIP_ReadUART1>:
// block other functions until you get a '\r' or '\n'
// send the pointer to your char array and the number of elements in the array

void NU32DIP_ReadUART1(char * message, int maxLength) {
    char data = 0;
    int complete = 0, num_bytes = 0;
9d0075b0:	00001025 	move	v0,zero
    // loop until you get a '\r' or '\n'
    while (!complete) {
        if (U1STAbits.URXDA) { // if data is available
9d0075b4:	3c0abf80 	lui	t2,0xbf80
            data = U1RXREG; // read the data
9d0075b8:	3c09bf80 	lui	t1,0xbf80
            if ((data == '\n') || (data == '\r')) {
9d0075bc:	2408000a 	li	t0,10
9d0075c0:	2407000d 	li	a3,13
        if (U1STAbits.URXDA) { // if data is available
9d0075c4:	8d436010 	lw	v1,24592(t2)
9d0075c8:	30630001 	andi	v1,v1,0x1
9d0075cc:	1060fffd 	beqz	v1,9d0075c4 <NU32DIP_ReadUART1+0x14>
9d0075d0:	00000000 	nop
            data = U1RXREG; // read the data
9d0075d4:	8d236030 	lw	v1,24624(t1)
9d0075d8:	7c031c20 	seb	v1,v1
            if ((data == '\n') || (data == '\r')) {
9d0075dc:	5068000b 	beql	v1,t0,9d00760c <NU32DIP_ReadUART1+0x5c>
9d0075e0:	00822021 	addu	a0,a0,v0
9d0075e4:	10670008 	beq	v1,a3,9d007608 <NU32DIP_ReadUART1+0x58>
9d0075e8:	24460001 	addiu	a2,v0,1
                complete = 1;
            } else {
                message[num_bytes] = data;
                ++num_bytes;
                // roll over if the array is too small
                if (num_bytes >= maxLength) {
9d0075ec:	00c5302a 	slt	a2,a2,a1
                    num_bytes = 0;
9d0075f0:	244b0001 	addiu	t3,v0,1
                message[num_bytes] = data;
9d0075f4:	00821021 	addu	v0,a0,v0
9d0075f8:	a0430000 	sb	v1,0(v0)
9d0075fc:	01601025 	move	v0,t3
9d007600:	1000fff0 	b	9d0075c4 <NU32DIP_ReadUART1+0x14>
9d007604:	0006100a 	movz	v0,zero,a2
                }
            }
        }
    }
    // end the string
    message[num_bytes] = '\0';
9d007608:	00822021 	addu	a0,a0,v0
}
9d00760c:	03e00008 	jr	ra
9d007610:	a0800000 	sb	zero,0(a0)

9d007614 <NU32DIP_WriteUART1>:

// Write a character array using UART1

void NU32DIP_WriteUART1(const char * string) {
    while (*string != '\0') {
9d007614:	80820000 	lb	v0,0(a0)
9d007618:	1040000b 	beqz	v0,9d007648 <NU32DIP_WriteUART1+0x34>
9d00761c:	3c06bf80 	lui	a2,0xbf80
        while (U1STAbits.UTXBF) {
            ; // wait until tx buffer isn't full
        }
        U1TXREG = *string;
9d007620:	3c05bf80 	lui	a1,0xbf80
        while (U1STAbits.UTXBF) {
9d007624:	8cc36010 	lw	v1,24592(a2)
9d007628:	7c630240 	ext	v1,v1,0x9,0x1
9d00762c:	1460fffd 	bnez	v1,9d007624 <NU32DIP_WriteUART1+0x10>
9d007630:	00000000 	nop
        U1TXREG = *string;
9d007634:	aca26020 	sw	v0,24608(a1)
        ++string;
9d007638:	24840001 	addiu	a0,a0,1
    while (*string != '\0') {
9d00763c:	80820000 	lb	v0,0(a0)
9d007640:	1440fff8 	bnez	v0,9d007624 <NU32DIP_WriteUART1+0x10>
9d007644:	00000000 	nop
    }
}
9d007648:	03e00008 	jr	ra
9d00764c:	00000000 	nop

9d007650 <i2c_master_start>:
    i2c_master_send(0b01111111);
    i2c_master_stop();
}

void i2c_master_start(void) {
    I2C1CONbits.SEN = 1; // send the start bit
9d007650:	3c02bf80 	lui	v0,0xbf80
9d007654:	94435000 	lhu	v1,20480(v0)
9d007658:	24040001 	li	a0,1
9d00765c:	7c830004 	ins	v1,a0,0x0,0x1
9d007660:	a4435000 	sh	v1,20480(v0)
    while (I2C1CONbits.SEN) {
9d007664:	00401825 	move	v1,v0
9d007668:	8c625000 	lw	v0,20480(v1)
9d00766c:	30420001 	andi	v0,v0,0x1
9d007670:	1440fffd 	bnez	v0,9d007668 <i2c_master_start+0x18>
9d007674:	00000000 	nop
        ;
    } // wait for the start bit to be sent
}
9d007678:	03e00008 	jr	ra
9d00767c:	00000000 	nop

9d007680 <i2c_master_restart>:

void i2c_master_restart(void) {
    I2C1CONbits.RSEN = 1; // send a restart 
9d007680:	3c02bf80 	lui	v0,0xbf80
9d007684:	94435000 	lhu	v1,20480(v0)
9d007688:	24040001 	li	a0,1
9d00768c:	7c830844 	ins	v1,a0,0x1,0x1
9d007690:	a4435000 	sh	v1,20480(v0)
    while (I2C1CONbits.RSEN) {
9d007694:	00401825 	move	v1,v0
9d007698:	8c625000 	lw	v0,20480(v1)
9d00769c:	7c420040 	ext	v0,v0,0x1,0x1
9d0076a0:	1440fffd 	bnez	v0,9d007698 <i2c_master_restart+0x18>
9d0076a4:	00000000 	nop
        ;
    } // wait for the restart to clear
}
9d0076a8:	03e00008 	jr	ra
9d0076ac:	00000000 	nop

9d0076b0 <i2c_master_send>:

void i2c_master_send(unsigned char byte) { // send a byte to slave
    I2C1TRN = byte; // if an address, bit 0 = 0 for write, 1 for read
9d0076b0:	3c02bf80 	lui	v0,0xbf80
9d0076b4:	ac445050 	sw	a0,20560(v0)
    while (I2C1STATbits.TRSTAT) {
9d0076b8:	3c03bf80 	lui	v1,0xbf80
9d0076bc:	8c625010 	lw	v0,20496(v1)
9d0076c0:	7c420380 	ext	v0,v0,0xe,0x1
9d0076c4:	1440fffd 	bnez	v0,9d0076bc <i2c_master_send+0xc>
9d0076c8:	3c02bf80 	lui	v0,0xbf80
        ;
    } // wait for the transmission to finish
    if (I2C1STATbits.ACKSTAT) { // if this is high, slave has not acknowledged
9d0076cc:	8c425010 	lw	v0,20496(v0)
9d0076d0:	7c4203c0 	ext	v0,v0,0xf,0x1
9d0076d4:	10400003 	beqz	v0,9d0076e4 <i2c_master_send+0x34>
9d0076d8:	00000000 	nop
        // ("I2C1 Master: failed to receive ACK\r\n");
        while(1){} // get stuck here if the chip does not ACK back
9d0076dc:	1000ffff 	b	9d0076dc <i2c_master_send+0x2c>
9d0076e0:	00000000 	nop
    }
}
9d0076e4:	03e00008 	jr	ra
9d0076e8:	00000000 	nop

9d0076ec <i2c_master_recv>:

unsigned char i2c_master_recv(void) { // receive a byte from the slave
    I2C1CONbits.RCEN = 1; // start receiving data
9d0076ec:	3c02bf80 	lui	v0,0xbf80
9d0076f0:	94435000 	lhu	v1,20480(v0)
9d0076f4:	24040001 	li	a0,1
9d0076f8:	7c8318c4 	ins	v1,a0,0x3,0x1
9d0076fc:	a4435000 	sh	v1,20480(v0)
    while (!I2C1STATbits.RBF) {
9d007700:	3c03bf80 	lui	v1,0xbf80
9d007704:	8c625010 	lw	v0,20496(v1)
9d007708:	7c420040 	ext	v0,v0,0x1,0x1
9d00770c:	1040fffd 	beqz	v0,9d007704 <i2c_master_recv+0x18>
9d007710:	3c02bf80 	lui	v0,0xbf80
        ;
    } // wait to receive the data
    return I2C1RCV; // read and return the data
9d007714:	8c425060 	lw	v0,20576(v0)
}
9d007718:	03e00008 	jr	ra
9d00771c:	304200ff 	andi	v0,v0,0xff

9d007720 <i2c_master_ack>:

void i2c_master_ack(int val) { // sends ACK = 0 (slave should send another byte)
    // or NACK = 1 (no more bytes requested from slave)
    I2C1CONbits.ACKDT = val; // store ACK/NACK in ACKDT
9d007720:	3c02bf80 	lui	v0,0xbf80
9d007724:	94435000 	lhu	v1,20480(v0)
9d007728:	7c832944 	ins	v1,a0,0x5,0x1
9d00772c:	a4435000 	sh	v1,20480(v0)
    I2C1CONbits.ACKEN = 1; // send ACKDT
9d007730:	94435000 	lhu	v1,20480(v0)
9d007734:	24040001 	li	a0,1
9d007738:	7c832104 	ins	v1,a0,0x4,0x1
9d00773c:	a4435000 	sh	v1,20480(v0)
    while (I2C1CONbits.ACKEN) {
9d007740:	00401825 	move	v1,v0
9d007744:	8c625000 	lw	v0,20480(v1)
9d007748:	7c420100 	ext	v0,v0,0x4,0x1
9d00774c:	1440fffd 	bnez	v0,9d007744 <i2c_master_ack+0x24>
9d007750:	00000000 	nop
        ;
    } // wait for ACK/NACK to be sent
}
9d007754:	03e00008 	jr	ra
9d007758:	00000000 	nop

9d00775c <i2c_master_stop>:

void i2c_master_stop(void) { // send a STOP:
    I2C1CONbits.PEN = 1; // comm is complete and master relinquishes bus
9d00775c:	3c02bf80 	lui	v0,0xbf80
9d007760:	94435000 	lhu	v1,20480(v0)
9d007764:	24040001 	li	a0,1
9d007768:	7c831084 	ins	v1,a0,0x2,0x1
9d00776c:	a4435000 	sh	v1,20480(v0)
    while (I2C1CONbits.PEN) {
9d007770:	00401825 	move	v1,v0
9d007774:	8c625000 	lw	v0,20480(v1)
9d007778:	7c420080 	ext	v0,v0,0x2,0x1
9d00777c:	1440fffd 	bnez	v0,9d007774 <i2c_master_stop+0x18>
9d007780:	00000000 	nop
        ;
    } // wait for STOP to complete
}
9d007784:	03e00008 	jr	ra
9d007788:	00000000 	nop

9d00778c <i2c_master_setup>:
void i2c_master_setup(void) {
9d00778c:	27bdffe8 	addiu	sp,sp,-24
9d007790:	afbf0014 	sw	ra,20(sp)
    I2C1BRG = 1000; // I2CBRG = [1/(2*Fsck) - TPGD]*Pblck - 2 (TPGD is the Pulse Gobbler Delay)
9d007794:	3c02bf80 	lui	v0,0xbf80
9d007798:	240303e8 	li	v1,1000
9d00779c:	ac435040 	sw	v1,20544(v0)
    I2C1CONbits.ON = 1; // turn on the I2C1 module
9d0077a0:	3c02bf80 	lui	v0,0xbf80
9d0077a4:	94435000 	lhu	v1,20480(v0)
9d0077a8:	24040001 	li	a0,1
9d0077ac:	7c837bc4 	ins	v1,a0,0xf,0x1
9d0077b0:	a4435000 	sh	v1,20480(v0)
    i2c_master_start();
9d0077b4:	0f401d94 	jal	9d007650 <i2c_master_start>
9d0077b8:	00000000 	nop
    i2c_master_send(0b0100000 << 1);
9d0077bc:	0f401dac 	jal	9d0076b0 <i2c_master_send>
9d0077c0:	24040040 	li	a0,64
    i2c_master_send(0x00);
9d0077c4:	0f401dac 	jal	9d0076b0 <i2c_master_send>
9d0077c8:	00002025 	move	a0,zero
    i2c_master_send(0b01111111);
9d0077cc:	0f401dac 	jal	9d0076b0 <i2c_master_send>
9d0077d0:	2404007f 	li	a0,127
    i2c_master_stop();
9d0077d4:	0f401dd7 	jal	9d00775c <i2c_master_stop>
9d0077d8:	00000000 	nop
}
9d0077dc:	8fbf0014 	lw	ra,20(sp)
9d0077e0:	03e00008 	jr	ra
9d0077e4:	27bd0018 	addiu	sp,sp,24

Disassembly of section .text:

9d0077e8 <turnOn_GP7>:
        }
    }
}

//led
void turnOn_GP7(void) {
9d0077e8:	27bdfff8 	addiu	sp,sp,-8
9d0077ec:	afbf0004 	sw	ra,4(sp)
    LATAbits.LATA4 = !LATAbits.LATA4;
9d0077f0:	3c03bf88 	lui	v1,0xbf88
9d0077f4:	8c626030 	lw	v0,24624(v1)
9d0077f8:	7c420100 	ext	v0,v0,0x4,0x1
9d0077fc:	38420001 	xori	v0,v0,0x1
9d007800:	90646030 	lbu	a0,24624(v1)
9d007804:	7c442104 	ins	a0,v0,0x4,0x1
9d007808:	a0646030 	sb	a0,24624(v1)
    _CP0_SET_COUNT(0);
9d00780c:	00001025 	move	v0,zero
9d007810:	40824800 	mtc0	v0,c0_count
9d007814:	000000c0 	ehb
    while (_CP0_GET_COUNT() < 3000000) {}
9d007818:	3c02002d 	lui	v0,0x2d
9d00781c:	3442c6c0 	ori	v0,v0,0xc6c0
9d007820:	40034800 	mfc0	v1,c0_count
9d007824:	0062182b 	sltu	v1,v1,v0
9d007828:	1460fffd 	bnez	v1,9d007820 <turnOn_GP7+0x38>
9d00782c:	8fbf0004 	lw	ra,4(sp)
    while (_CP0_GET_COUNT() < 3000000) {}
    write_i2c(0b01000000, 0xA, 0b10000000); 

    _CP0_SET_COUNT(0);
    while (_CP0_GET_COUNT() < 3000000) {}*/
}
9d007830:	03e00008 	jr	ra
9d007834:	27bd0008 	addiu	sp,sp,8

9d007838 <read_GP0>:

//read from GP0
unsigned char read_GP0(unsigned char address, unsigned char register1) {
9d007838:	27bdffe0 	addiu	sp,sp,-32
9d00783c:	afbf001c 	sw	ra,28(sp)
9d007840:	afb10018 	sw	s1,24(sp)
9d007844:	afb00014 	sw	s0,20(sp)
9d007848:	00808025 	move	s0,a0
    //send start bit
    i2c_master_start();
9d00784c:	0f401d94 	jal	9d007650 <i2c_master_start>
9d007850:	00a08825 	move	s1,a1
    //send addy w write bit
    i2c_master_send(address);
9d007854:	0f401dac 	jal	9d0076b0 <i2c_master_send>
9d007858:	02002025 	move	a0,s0
    //send reg u want to read from
    i2c_master_send(register1);
9d00785c:	0f401dac 	jal	9d0076b0 <i2c_master_send>
9d007860:	02202025 	move	a0,s1
    //restart
    i2c_master_restart();
9d007864:	0f401da0 	jal	9d007680 <i2c_master_restart>
9d007868:	00000000 	nop
    //send addy w read bit
    i2c_master_send(address | 1);
9d00786c:	0f401dac 	jal	9d0076b0 <i2c_master_send>
9d007870:	36040001 	ori	a0,s0,0x1
    unsigned char r = (i2c_master_recv() & 0b00000001);
9d007874:	0f401dbb 	jal	9d0076ec <i2c_master_recv>
9d007878:	00000000 	nop
9d00787c:	00408025 	move	s0,v0
    //send ACK bit
    i2c_master_ack(1);
9d007880:	0f401dc8 	jal	9d007720 <i2c_master_ack>
9d007884:	24040001 	li	a0,1
    //send stop bit
    i2c_master_stop();
9d007888:	0f401dd7 	jal	9d00775c <i2c_master_stop>
9d00788c:	00000000 	nop

    //just last bit
    return r;
}
9d007890:	32020001 	andi	v0,s0,0x1
9d007894:	8fbf001c 	lw	ra,28(sp)
9d007898:	8fb10018 	lw	s1,24(sp)
9d00789c:	8fb00014 	lw	s0,20(sp)
9d0078a0:	03e00008 	jr	ra
9d0078a4:	27bd0020 	addiu	sp,sp,32

9d0078a8 <generic_i2c_write>:

//generic_i2c_write
void generic_i2c_write(unsigned char address, unsigned char register1, unsigned char value) {
9d0078a8:	27bdffe0 	addiu	sp,sp,-32
9d0078ac:	afbf001c 	sw	ra,28(sp)
9d0078b0:	afb20018 	sw	s2,24(sp)
9d0078b4:	afb10014 	sw	s1,20(sp)
9d0078b8:	afb00010 	sw	s0,16(sp)
9d0078bc:	00809025 	move	s2,a0
9d0078c0:	00a08825 	move	s1,a1
    //start, send, addy/reg/value, stop
    i2c_master_start();
9d0078c4:	0f401d94 	jal	9d007650 <i2c_master_start>
9d0078c8:	00c08025 	move	s0,a2
    i2c_master_send(address);
9d0078cc:	0f401dac 	jal	9d0076b0 <i2c_master_send>
9d0078d0:	02402025 	move	a0,s2
    i2c_master_send(register1);
9d0078d4:	0f401dac 	jal	9d0076b0 <i2c_master_send>
9d0078d8:	02202025 	move	a0,s1
    i2c_master_send(value);
9d0078dc:	0f401dac 	jal	9d0076b0 <i2c_master_send>
9d0078e0:	02002025 	move	a0,s0
    i2c_master_stop();
9d0078e4:	0f401dd7 	jal	9d00775c <i2c_master_stop>
9d0078e8:	00000000 	nop
9d0078ec:	8fbf001c 	lw	ra,28(sp)
9d0078f0:	8fb20018 	lw	s2,24(sp)
9d0078f4:	8fb10014 	lw	s1,20(sp)
9d0078f8:	8fb00010 	lw	s0,16(sp)
9d0078fc:	03e00008 	jr	ra
9d007900:	27bd0020 	addiu	sp,sp,32

9d007904 <main>:
int main() {
9d007904:	27bdffe8 	addiu	sp,sp,-24
9d007908:	afbf0014 	sw	ra,20(sp)
    i2c_master_setup();
9d00790c:	0f401de3 	jal	9d00778c <i2c_master_setup>
9d007910:	00000000 	nop
    NU32DIP_Startup();
9d007914:	0f401d24 	jal	9d007490 <NU32DIP_Startup>
9d007918:	00000000 	nop
        turnOn_GP7();
9d00791c:	0f401dfa 	jal	9d0077e8 <turnOn_GP7>
9d007920:	00000000 	nop
        read = read_GP0(sent, 0x09);
9d007924:	24050009 	li	a1,9
9d007928:	0f401e0e 	jal	9d007838 <read_GP0>
9d00792c:	24040040 	li	a0,64
        if (read) { //turn on GP0
9d007930:	10400006 	beqz	v0,9d00794c <main+0x48>
9d007934:	24060080 	li	a2,128
            generic_i2c_write(sent, 0x0A, 0b10000000);
9d007938:	2405000a 	li	a1,10
9d00793c:	0f401e2a 	jal	9d0078a8 <generic_i2c_write>
9d007940:	24040040 	li	a0,64
9d007944:	1000fff5 	b	9d00791c <main+0x18>
9d007948:	00000000 	nop
            generic_i2c_write(sent, 0x0A, 0b00000000);
9d00794c:	00003025 	move	a2,zero
9d007950:	2405000a 	li	a1,10
9d007954:	0f401e2a 	jal	9d0078a8 <generic_i2c_write>
9d007958:	24040040 	li	a0,64
9d00795c:	1000ffef 	b	9d00791c <main+0x18>
9d007960:	00000000 	nop

Disassembly of section .text.general_exception:

9d007964 <_general_exception_context>:
9d007964:	27bdffa8 	addiu	sp,sp,-88
9d007968:	afa10004 	sw	at,4(sp)
9d00796c:	afa20008 	sw	v0,8(sp)
9d007970:	afa3000c 	sw	v1,12(sp)
9d007974:	afa40010 	sw	a0,16(sp)
9d007978:	afa50014 	sw	a1,20(sp)
9d00797c:	afa60018 	sw	a2,24(sp)
9d007980:	afa7001c 	sw	a3,28(sp)
9d007984:	afa80020 	sw	t0,32(sp)
9d007988:	afa90024 	sw	t1,36(sp)
9d00798c:	afaa0028 	sw	t2,40(sp)
9d007990:	afab002c 	sw	t3,44(sp)
9d007994:	afac0030 	sw	t4,48(sp)
9d007998:	afad0034 	sw	t5,52(sp)
9d00799c:	afae0038 	sw	t6,56(sp)
9d0079a0:	afaf003c 	sw	t7,60(sp)
9d0079a4:	afb80040 	sw	t8,64(sp)
9d0079a8:	afb90044 	sw	t9,68(sp)
9d0079ac:	afbf0048 	sw	ra,72(sp)
9d0079b0:	00004012 	mflo	t0
9d0079b4:	afa8004c 	sw	t0,76(sp)
9d0079b8:	00004010 	mfhi	t0
9d0079bc:	afa80050 	sw	t0,80(sp)
9d0079c0:	3c1a9d00 	lui	k0,0x9d00
9d0079c4:	275a7b5c 	addiu	k0,k0,31580
9d0079c8:	00000000 	nop
9d0079cc:	40046800 	mfc0	a0,c0_cause
9d0079d0:	40056000 	mfc0	a1,c0_status
9d0079d4:	0340f809 	jalr	k0
9d0079d8:	00000000 	nop
9d0079dc:	8fa80050 	lw	t0,80(sp)
9d0079e0:	01000011 	mthi	t0
9d0079e4:	8fa8004c 	lw	t0,76(sp)
9d0079e8:	01000013 	mtlo	t0
9d0079ec:	8fa10004 	lw	at,4(sp)
9d0079f0:	8fa20008 	lw	v0,8(sp)
9d0079f4:	8fa3000c 	lw	v1,12(sp)
9d0079f8:	8fa40010 	lw	a0,16(sp)
9d0079fc:	8fa50014 	lw	a1,20(sp)
9d007a00:	8fa60018 	lw	a2,24(sp)
9d007a04:	8fa7001c 	lw	a3,28(sp)
9d007a08:	8fa80020 	lw	t0,32(sp)
9d007a0c:	8fa90024 	lw	t1,36(sp)
9d007a10:	8faa0028 	lw	t2,40(sp)
9d007a14:	8fab002c 	lw	t3,44(sp)
9d007a18:	8fac0030 	lw	t4,48(sp)
9d007a1c:	8fad0034 	lw	t5,52(sp)
9d007a20:	8fae0038 	lw	t6,56(sp)
9d007a24:	8faf003c 	lw	t7,60(sp)
9d007a28:	8fb80040 	lw	t8,64(sp)
9d007a2c:	8fb90044 	lw	t9,68(sp)
9d007a30:	8fbf0048 	lw	ra,72(sp)
9d007a34:	27bd0058 	addiu	sp,sp,88
9d007a38:	000000c0 	ehb
9d007a3c:	42000018 	eret

Disassembly of section .text.dinit.startup:

9d007a40 <__pic32_data_init_impl>:
9d007a40:	3c089d00 	lui	t0,0x9d00
9d007a44:	25087c80 	addiu	t0,t0,31872
9d007a48:	1100001b 	beqz	t0,9d007ab8 <_dinit_end+0x18>
9d007a4c:	00000000 	nop
9d007a50:	8d090000 	lw	t1,0(t0)
9d007a54:	11200018 	beqz	t1,9d007ab8 <_dinit_end+0x18>
9d007a58:	25080004 	addiu	t0,t0,4
9d007a5c:	8d0a0000 	lw	t2,0(t0)
9d007a60:	25080004 	addiu	t0,t0,4
9d007a64:	8d0b0000 	lw	t3,0(t0)
9d007a68:	11600009 	beqz	t3,9d007a90 <_dinit_clear>
9d007a6c:	25080004 	addiu	t0,t0,4

9d007a70 <_dinit_copy>:
9d007a70:	910c0000 	lbu	t4,0(t0)
9d007a74:	254affff 	addiu	t2,t2,-1
9d007a78:	25080001 	addiu	t0,t0,1
9d007a7c:	a12c0000 	sb	t4,0(t1)
9d007a80:	1540fffb 	bnez	t2,9d007a70 <_dinit_copy>
9d007a84:	25290001 	addiu	t1,t1,1
9d007a88:	10000005 	b	9d007aa0 <_dinit_end>
9d007a8c:	00000000 	nop

9d007a90 <_dinit_clear>:
9d007a90:	a1200000 	sb	zero,0(t1)
9d007a94:	254affff 	addiu	t2,t2,-1
9d007a98:	1540fffd 	bnez	t2,9d007a90 <_dinit_clear>
9d007a9c:	25290001 	addiu	t1,t1,1

9d007aa0 <_dinit_end>:
9d007aa0:	25080003 	addiu	t0,t0,3
9d007aa4:	240afffc 	li	t2,-4
9d007aa8:	01484024 	and	t0,t2,t0
9d007aac:	8d090000 	lw	t1,0(t0)
9d007ab0:	1520ffe7 	bnez	t1,9d007a50 <__pic32_data_init_impl+0x10>
9d007ab4:	00000000 	nop
9d007ab8:	03e00008 	jr	ra
9d007abc:	00000000 	nop

Disassembly of section .text.main_entry:

9d007ac0 <_main_entry>:
9d007ac0:	3c040000 	lui	a0,0x0
9d007ac4:	27bdffe8 	addiu	sp,sp,-24
9d007ac8:	24840000 	addiu	a0,a0,0
9d007acc:	10800003 	beqz	a0,9d007adc <_main_entry+0x1c>
9d007ad0:	afbf0014 	sw	ra,20(sp)
9d007ad4:	0080f809 	jalr	a0
9d007ad8:	00000000 	nop
9d007adc:	30840000 	andi	a0,a0,0x0
9d007ae0:	30a50000 	andi	a1,a1,0x0
9d007ae4:	3c089d00 	lui	t0,0x9d00
9d007ae8:	25087904 	addiu	t0,t0,30980
9d007aec:	0100f809 	jalr	t0
9d007af0:	00000000 	nop

9d007af4 <__crt0_exit>:
9d007af4:	3c020000 24420000 10400003 00000000     ...<..B$..@.....
9d007b04:	0040f809 00000000 1000fff9 00000000     ..@.............

Disassembly of section .text._bootstrap_exception_handler:

9d007b14 <_bootstrap_exception_handler>:
9d007b14:	3c020000 	lui	v0,0x0
9d007b18:	24420000 	addiu	v0,v0,0
9d007b1c:	10400005 	beqz	v0,9d007b34 <_bootstrap_exception_handler+0x20>
9d007b20:	3c020000 	lui	v0,0x0
9d007b24:	24420000 	addiu	v0,v0,0
9d007b28:	10400003 	beqz	v0,9d007b38 <_bootstrap_exception_handler+0x24>
9d007b2c:	3c029d00 	lui	v0,0x9d00
9d007b30:	7000003f 	sdbbp
9d007b34:	3c029d00 	lui	v0,0x9d00
9d007b38:	24427bec 	addiu	v0,v0,31724
9d007b3c:	10400005 	beqz	v0,9d007b54 <_bootstrap_exception_handler+0x40>
9d007b40:	00000000 	nop
9d007b44:	27bdffe8 	addiu	sp,sp,-24
9d007b48:	afbf0014 	sw	ra,20(sp)
9d007b4c:	0040f809 	jalr	v0
9d007b50:	00000000 	nop
9d007b54:	1000ffff 	b	9d007b54 <_bootstrap_exception_handler+0x40>
9d007b58:	00000000 	nop

Disassembly of section .text._general_exception_handler:

9d007b5c <_general_exception_handler>:
9d007b5c:	3c020000 	lui	v0,0x0
9d007b60:	24420000 	addiu	v0,v0,0
9d007b64:	10400005 	beqz	v0,9d007b7c <_general_exception_handler+0x20>
9d007b68:	3c020000 	lui	v0,0x0
9d007b6c:	24420000 	addiu	v0,v0,0
9d007b70:	10400003 	beqz	v0,9d007b80 <_general_exception_handler+0x24>
9d007b74:	3c029d00 	lui	v0,0x9d00
9d007b78:	7000003f 	sdbbp
9d007b7c:	3c029d00 	lui	v0,0x9d00
9d007b80:	24427bec 	addiu	v0,v0,31724
9d007b84:	10400005 	beqz	v0,9d007b9c <_general_exception_handler+0x40>
9d007b88:	00000000 	nop
9d007b8c:	27bdffe8 	addiu	sp,sp,-24
9d007b90:	afbf0014 	sw	ra,20(sp)
9d007b94:	0040f809 	jalr	v0
9d007b98:	00000000 	nop
9d007b9c:	1000ffff 	b	9d007b9c <_general_exception_handler+0x40>
9d007ba0:	00000000 	nop

Disassembly of section .vector_default:

9d007ba4 <_DefaultInterrupt>:
9d007ba4:	3c020000 	lui	v0,0x0
9d007ba8:	24420000 	addiu	v0,v0,0
9d007bac:	10400007 	beqz	v0,9d007bcc <_DefaultInterrupt+0x28>
9d007bb0:	3c020000 	lui	v0,0x0
9d007bb4:	24420000 	addiu	v0,v0,0
9d007bb8:	50400005 	beqzl	v0,9d007bd0 <_DefaultInterrupt+0x2c>
9d007bbc:	3c029d00 	lui	v0,0x9d00
9d007bc0:	7000003f 	sdbbp
9d007bc4:	03e00008 	jr	ra
9d007bc8:	00000000 	nop
9d007bcc:	3c029d00 	lui	v0,0x9d00
9d007bd0:	24427bec 	addiu	v0,v0,31724
9d007bd4:	10400003 	beqz	v0,9d007be4 <_DefaultInterrupt+0x40>
9d007bd8:	00000000 	nop
9d007bdc:	0040f809 	jalr	v0
9d007be0:	00000000 	nop
9d007be4:	03e00008 	jr	ra
9d007be8:	00000000 	nop

Disassembly of section .text:

9d007bec <__pic32_software_reset>:
9d007bec:	41606000 	di
9d007bf0:	000000c0 	ehb
9d007bf4:	3c03aa99 	lui	v1,0xaa99
9d007bf8:	3c02bf81 	lui	v0,0xbf81
9d007bfc:	24636655 	addiu	v1,v1,26197
9d007c00:	ac40f230 	sw	zero,-3536(v0)
9d007c04:	ac43f230 	sw	v1,-3536(v0)
9d007c08:	3c035566 	lui	v1,0x5566
9d007c0c:	346399aa 	ori	v1,v1,0x99aa
9d007c10:	ac43f230 	sw	v1,-3536(v0)
9d007c14:	3c02bf81 	lui	v0,0xbf81
9d007c18:	24030001 	li	v1,1
9d007c1c:	ac43f618 	sw	v1,-2536(v0)
9d007c20:	3c02bf81 	lui	v0,0xbf81
9d007c24:	8c42f610 	lw	v0,-2544(v0)
9d007c28:	0b401efd 	j	9d007bf4 <__pic32_software_reset+0x8>
9d007c2c:	00000000 	nop

Disassembly of section .text.dinit.startup:

9d007c30 <__pic32_data_init>:
9d007c30:	03e01825 	move	v1,ra
9d007c34:	3c089d00 	lui	t0,0x9d00
9d007c38:	25087a40 	addiu	t0,t0,31296
9d007c3c:	0100f809 	jalr	t0
9d007c40:	00000000 	nop
9d007c44:	0060f825 	move	ra,v1
9d007c48:	03e00008 	jr	ra
9d007c4c:	00000000 	nop

Disassembly of section .text:

9d007c68 <_nmi_handler>:
9d007c68:	401a6000 	mfc0	k0,c0_status
9d007c6c:	3c1bffbf 	lui	k1,0xffbf
9d007c70:	377bffff 	ori	k1,k1,0xffff
9d007c74:	035bd024 	and	k0,k0,k1
9d007c78:	409a6000 	mtc0	k0,c0_status
9d007c7c:	42000018 	eret

Disassembly of section .dinit:

9d007c80 <.dinit>:
9d007c80:	00000000 	nop
9d007c84:	44444444 	0x44444444
9d007c88:	44444444 	0x44444444
9d007c8c:	44444444 	0x44444444

Disassembly of section .text._on_reset:

9d007c90 <_on_reset>:
9d007c90:	03e00008 	jr	ra
9d007c94:	00000000 	nop

Disassembly of section .text._on_bootstrap:

9d007c98 <_on_bootstrap>:
9d007c98:	03e00008 	jr	ra
9d007c9c:	00000000 	nop
